ARM GAS  C:\Users\SAM~1.KIN\AppData\Local\Temp\ccxm8mgn.s 			page 1


   1              		.cpu cortex-m4
   2              		.eabi_attribute 27, 1
   3              		.eabi_attribute 28, 1
   4              		.eabi_attribute 20, 1
   5              		.eabi_attribute 21, 1
   6              		.eabi_attribute 23, 3
   7              		.eabi_attribute 24, 1
   8              		.eabi_attribute 25, 1
   9              		.eabi_attribute 26, 1
  10              		.eabi_attribute 30, 6
  11              		.eabi_attribute 34, 1
  12              		.eabi_attribute 18, 4
  13              		.file	"link_main.c"
  14              		.text
  15              	.Ltext0:
  16              		.cfi_sections	.debug_frame
  17              		.section	.bss.s_link_mainversion,"aw",%nobits
  18              		.align	2
  21              	s_link_mainversion:
  22 0000 00000000 		.space	64
  22      00000000 
  22      00000000 
  22      00000000 
  22      00000000 
  23              		.section	.rodata
  24              		.align	2
  25              	.LC0:
  26 0000 5625642E 		.ascii	"V%d.%d.%d AT %s ON %s\000"
  26      25642E25 
  26      64204154 
  26      20257320 
  26      4F4E2025 
  27 0016 0000     		.align	2
  28              	.LC1:
  29 0018 4D617920 		.ascii	"May 12 2021\000"
  29      31322032 
  29      30323100 
  30              		.align	2
  31              	.LC2:
  32 0024 31353A34 		.ascii	"15:43:34\000"
  32      333A3334 
  32      00
  33              		.section	.text.linkmain_version,"ax",%progbits
  34              		.align	1
  35              		.global	linkmain_version
  36              		.syntax unified
  37              		.thumb
  38              		.thumb_func
  39              		.fpu fpv4-sp-d16
  41              	linkmain_version:
  42              	.LFB3:
  43              		.file 1 "C:/Users/SAM.KINUTHIA/.icode/sdk/IoT_LINK_1.0.0/iot_link/link_main.c"
   1:C:/Users/SAM.KINUTHIA/.icode/sdk/IoT_LINK_1.0.0/iot_link\link_main.c **** /*----------------------------------------------------------------------------
   2:C:/Users/SAM.KINUTHIA/.icode/sdk/IoT_LINK_1.0.0/iot_link\link_main.c ****  * Copyright (c) <2018>, <Huawei Technologies Co., Ltd>
   3:C:/Users/SAM.KINUTHIA/.icode/sdk/IoT_LINK_1.0.0/iot_link\link_main.c ****  * All rights reserved.
   4:C:/Users/SAM.KINUTHIA/.icode/sdk/IoT_LINK_1.0.0/iot_link\link_main.c ****  * Redistribution and use in source and binary forms, with or without modification,
   5:C:/Users/SAM.KINUTHIA/.icode/sdk/IoT_LINK_1.0.0/iot_link\link_main.c ****  * are permitted provided that the following conditions are met:
ARM GAS  C:\Users\SAM~1.KIN\AppData\Local\Temp\ccxm8mgn.s 			page 2


   6:C:/Users/SAM.KINUTHIA/.icode/sdk/IoT_LINK_1.0.0/iot_link\link_main.c ****  * 1. Redistributions of source code must retain the above copyright notice, this list of
   7:C:/Users/SAM.KINUTHIA/.icode/sdk/IoT_LINK_1.0.0/iot_link\link_main.c ****  * conditions and the following disclaimer.
   8:C:/Users/SAM.KINUTHIA/.icode/sdk/IoT_LINK_1.0.0/iot_link\link_main.c ****  * 2. Redistributions in binary form must reproduce the above copyright notice, this list
   9:C:/Users/SAM.KINUTHIA/.icode/sdk/IoT_LINK_1.0.0/iot_link\link_main.c ****  * of conditions and the following disclaimer in the documentation and/or other materials
  10:C:/Users/SAM.KINUTHIA/.icode/sdk/IoT_LINK_1.0.0/iot_link\link_main.c ****  * provided with the distribution.
  11:C:/Users/SAM.KINUTHIA/.icode/sdk/IoT_LINK_1.0.0/iot_link\link_main.c ****  * 3. Neither the name of the copyright holder nor the names of its contributors may be used
  12:C:/Users/SAM.KINUTHIA/.icode/sdk/IoT_LINK_1.0.0/iot_link\link_main.c ****  * to endorse or promote products derived from this software without specific prior written
  13:C:/Users/SAM.KINUTHIA/.icode/sdk/IoT_LINK_1.0.0/iot_link\link_main.c ****  * permission.
  14:C:/Users/SAM.KINUTHIA/.icode/sdk/IoT_LINK_1.0.0/iot_link\link_main.c ****  * THIS SOFTWARE IS PROVIDED BY THE COPYRIGHT HOLDERS AND CONTRIBUTORS
  15:C:/Users/SAM.KINUTHIA/.icode/sdk/IoT_LINK_1.0.0/iot_link\link_main.c ****  * "AS IS" AND ANY EXPRESS OR IMPLIED WARRANTIES, INCLUDING, BUT NOT LIMITED TO,
  16:C:/Users/SAM.KINUTHIA/.icode/sdk/IoT_LINK_1.0.0/iot_link\link_main.c ****  * THE IMPLIED WARRANTIES OF MERCHANTABILITY AND FITNESS FOR A PARTICULAR
  17:C:/Users/SAM.KINUTHIA/.icode/sdk/IoT_LINK_1.0.0/iot_link\link_main.c ****  * PURPOSE ARE DISCLAIMED. IN NO EVENT SHALL THE COPYRIGHT HOLDER OR
  18:C:/Users/SAM.KINUTHIA/.icode/sdk/IoT_LINK_1.0.0/iot_link\link_main.c ****  * CONTRIBUTORS BE LIABLE FOR ANY DIRECT, INDIRECT, INCIDENTAL, SPECIAL,
  19:C:/Users/SAM.KINUTHIA/.icode/sdk/IoT_LINK_1.0.0/iot_link\link_main.c ****  * EXEMPLARY, OR CONSEQUENTIAL DAMAGES (INCLUDING, BUT NOT LIMITED TO,
  20:C:/Users/SAM.KINUTHIA/.icode/sdk/IoT_LINK_1.0.0/iot_link\link_main.c ****  * PROCUREMENT OF SUBSTITUTE GOODS OR SERVICES; LOSS OF USE, DATA, OR PROFITS;
  21:C:/Users/SAM.KINUTHIA/.icode/sdk/IoT_LINK_1.0.0/iot_link\link_main.c ****  * OR BUSINESS INTERRUPTION) HOWEVER CAUSED AND ON ANY THEORY OF LIABILITY,
  22:C:/Users/SAM.KINUTHIA/.icode/sdk/IoT_LINK_1.0.0/iot_link\link_main.c ****  * WHETHER IN CONTRACT, STRICT LIABILITY, OR TORT (INCLUDING NEGLIGENCE OR
  23:C:/Users/SAM.KINUTHIA/.icode/sdk/IoT_LINK_1.0.0/iot_link\link_main.c ****  * OTHERWISE) ARISING IN ANY WAY OUT OF THE USE OF THIS SOFTWARE, EVEN IF
  24:C:/Users/SAM.KINUTHIA/.icode/sdk/IoT_LINK_1.0.0/iot_link\link_main.c ****  * ADVISED OF THE POSSIBILITY OF SUCH DAMAGE.
  25:C:/Users/SAM.KINUTHIA/.icode/sdk/IoT_LINK_1.0.0/iot_link\link_main.c ****  *---------------------------------------------------------------------------*/
  26:C:/Users/SAM.KINUTHIA/.icode/sdk/IoT_LINK_1.0.0/iot_link\link_main.c **** /*----------------------------------------------------------------------------
  27:C:/Users/SAM.KINUTHIA/.icode/sdk/IoT_LINK_1.0.0/iot_link\link_main.c ****  * Notice of Export Control Law
  28:C:/Users/SAM.KINUTHIA/.icode/sdk/IoT_LINK_1.0.0/iot_link\link_main.c ****  * ===============================================
  29:C:/Users/SAM.KINUTHIA/.icode/sdk/IoT_LINK_1.0.0/iot_link\link_main.c ****  * Huawei LiteOS may be subject to applicable export control laws and regulations, which might
  30:C:/Users/SAM.KINUTHIA/.icode/sdk/IoT_LINK_1.0.0/iot_link\link_main.c ****  * include those applicable to Huawei LiteOS of U.S. and the country in which you are located.
  31:C:/Users/SAM.KINUTHIA/.icode/sdk/IoT_LINK_1.0.0/iot_link\link_main.c ****  * Import, export and usage of Huawei LiteOS in any manner by you shall be in compliance with such
  32:C:/Users/SAM.KINUTHIA/.icode/sdk/IoT_LINK_1.0.0/iot_link\link_main.c ****  * applicable export control laws and regulations.
  33:C:/Users/SAM.KINUTHIA/.icode/sdk/IoT_LINK_1.0.0/iot_link\link_main.c ****  *---------------------------------------------------------------------------*/
  34:C:/Users/SAM.KINUTHIA/.icode/sdk/IoT_LINK_1.0.0/iot_link\link_main.c **** /**
  35:C:/Users/SAM.KINUTHIA/.icode/sdk/IoT_LINK_1.0.0/iot_link\link_main.c ****  *  DATE                AUTHOR      INSTRUCTION
  36:C:/Users/SAM.KINUTHIA/.icode/sdk/IoT_LINK_1.0.0/iot_link\link_main.c ****  *  2019-04-28 15:00  zhangqianfu  The first version
  37:C:/Users/SAM.KINUTHIA/.icode/sdk/IoT_LINK_1.0.0/iot_link\link_main.c ****  *
  38:C:/Users/SAM.KINUTHIA/.icode/sdk/IoT_LINK_1.0.0/iot_link\link_main.c ****  */
  39:C:/Users/SAM.KINUTHIA/.icode/sdk/IoT_LINK_1.0.0/iot_link\link_main.c **** 
  40:C:/Users/SAM.KINUTHIA/.icode/sdk/IoT_LINK_1.0.0/iot_link\link_main.c **** #include <link_version.h>
  41:C:/Users/SAM.KINUTHIA/.icode/sdk/IoT_LINK_1.0.0/iot_link\link_main.c **** //RTOS KERNEL
  42:C:/Users/SAM.KINUTHIA/.icode/sdk/IoT_LINK_1.0.0/iot_link\link_main.c **** #include <osal.h>
  43:C:/Users/SAM.KINUTHIA/.icode/sdk/IoT_LINK_1.0.0/iot_link\link_main.c **** 
  44:C:/Users/SAM.KINUTHIA/.icode/sdk/IoT_LINK_1.0.0/iot_link\link_main.c **** #if CONFIG_MACOS_ENABLE
  45:C:/Users/SAM.KINUTHIA/.icode/sdk/IoT_LINK_1.0.0/iot_link\link_main.c ****     #include <sys/select.h>
  46:C:/Users/SAM.KINUTHIA/.icode/sdk/IoT_LINK_1.0.0/iot_link\link_main.c **** #endif
  47:C:/Users/SAM.KINUTHIA/.icode/sdk/IoT_LINK_1.0.0/iot_link\link_main.c **** 
  48:C:/Users/SAM.KINUTHIA/.icode/sdk/IoT_LINK_1.0.0/iot_link\link_main.c **** 
  49:C:/Users/SAM.KINUTHIA/.icode/sdk/IoT_LINK_1.0.0/iot_link\link_main.c **** #ifdef WITH_DTLS
  50:C:/Users/SAM.KINUTHIA/.icode/sdk/IoT_LINK_1.0.0/iot_link\link_main.c **** #include <dtls_interface.h>
  51:C:/Users/SAM.KINUTHIA/.icode/sdk/IoT_LINK_1.0.0/iot_link\link_main.c **** 
  52:C:/Users/SAM.KINUTHIA/.icode/sdk/IoT_LINK_1.0.0/iot_link\link_main.c **** #endif
  53:C:/Users/SAM.KINUTHIA/.icode/sdk/IoT_LINK_1.0.0/iot_link\link_main.c **** 
  54:C:/Users/SAM.KINUTHIA/.icode/sdk/IoT_LINK_1.0.0/iot_link\link_main.c **** 
  55:C:/Users/SAM.KINUTHIA/.icode/sdk/IoT_LINK_1.0.0/iot_link\link_main.c **** 
  56:C:/Users/SAM.KINUTHIA/.icode/sdk/IoT_LINK_1.0.0/iot_link\link_main.c **** #define  CN_LINK_VERSION_MAJOR      1
  57:C:/Users/SAM.KINUTHIA/.icode/sdk/IoT_LINK_1.0.0/iot_link\link_main.c **** #define  CN_LINK_VERSION_MINOR      3
  58:C:/Users/SAM.KINUTHIA/.icode/sdk/IoT_LINK_1.0.0/iot_link\link_main.c **** #define  CN_LINK_VERSION_FEATURE    1
  59:C:/Users/SAM.KINUTHIA/.icode/sdk/IoT_LINK_1.0.0/iot_link\link_main.c **** 
  60:C:/Users/SAM.KINUTHIA/.icode/sdk/IoT_LINK_1.0.0/iot_link\link_main.c **** 
  61:C:/Users/SAM.KINUTHIA/.icode/sdk/IoT_LINK_1.0.0/iot_link\link_main.c **** static char s_link_mainversion[64];
  62:C:/Users/SAM.KINUTHIA/.icode/sdk/IoT_LINK_1.0.0/iot_link\link_main.c **** const char *linkmain_version()
ARM GAS  C:\Users\SAM~1.KIN\AppData\Local\Temp\ccxm8mgn.s 			page 3


  63:C:/Users/SAM.KINUTHIA/.icode/sdk/IoT_LINK_1.0.0/iot_link\link_main.c **** {
  44              		.loc 1 63 0
  45              		.cfi_startproc
  46              		@ args = 0, pretend = 0, frame = 0
  47              		@ frame_needed = 1, uses_anonymous_args = 0
  48 0000 80B5     		push	{r7, lr}
  49              	.LCFI0:
  50              		.cfi_def_cfa_offset 8
  51              		.cfi_offset 7, -8
  52              		.cfi_offset 14, -4
  53 0002 84B0     		sub	sp, sp, #16
  54              	.LCFI1:
  55              		.cfi_def_cfa_offset 24
  56 0004 04AF     		add	r7, sp, #16
  57              	.LCFI2:
  58              		.cfi_def_cfa 7, 8
  64:C:/Users/SAM.KINUTHIA/.icode/sdk/IoT_LINK_1.0.0/iot_link\link_main.c ****     snprintf(s_link_mainversion,64,"V%d.%d.%d AT %s ON %s",CN_LINK_VERSION_MAJOR,\
  59              		.loc 1 64 0
  60 0006 094B     		ldr	r3, .L3
  61 0008 0393     		str	r3, [sp, #12]
  62 000a 094B     		ldr	r3, .L3+4
  63 000c 0293     		str	r3, [sp, #8]
  64 000e 0123     		movs	r3, #1
  65 0010 0193     		str	r3, [sp, #4]
  66 0012 0323     		movs	r3, #3
  67 0014 0093     		str	r3, [sp]
  68 0016 0123     		movs	r3, #1
  69 0018 064A     		ldr	r2, .L3+8
  70 001a 4021     		movs	r1, #64
  71 001c 0648     		ldr	r0, .L3+12
  72 001e FFF7FEFF 		bl	snprintf
  65:C:/Users/SAM.KINUTHIA/.icode/sdk/IoT_LINK_1.0.0/iot_link\link_main.c ****             CN_LINK_VERSION_MINOR,CN_LINK_VERSION_FEATURE,__TIME__,__DATE__);
  66:C:/Users/SAM.KINUTHIA/.icode/sdk/IoT_LINK_1.0.0/iot_link\link_main.c ****     return s_link_mainversion;
  73              		.loc 1 66 0
  74 0022 054B     		ldr	r3, .L3+12
  67:C:/Users/SAM.KINUTHIA/.icode/sdk/IoT_LINK_1.0.0/iot_link\link_main.c **** }
  75              		.loc 1 67 0
  76 0024 1846     		mov	r0, r3
  77 0026 BD46     		mov	sp, r7
  78              	.LCFI3:
  79              		.cfi_def_cfa_register 13
  80              		@ sp needed
  81 0028 80BD     		pop	{r7, pc}
  82              	.L4:
  83 002a 00BF     		.align	2
  84              	.L3:
  85 002c 18000000 		.word	.LC1
  86 0030 24000000 		.word	.LC2
  87 0034 00000000 		.word	.LC0
  88 0038 00000000 		.word	s_link_mainversion
  89              		.cfi_endproc
  90              	.LFE3:
  92              		.section	.bss.s_link_start,"aw",%nobits
  93              		.align	2
  96              	s_link_start:
  97 0000 00000000 		.space	4
  98              		.section	.rodata
ARM GAS  C:\Users\SAM~1.KIN\AppData\Local\Temp\ccxm8mgn.s 			page 4


  99 002d 000000   		.align	2
 100              	.LC3:
 101 0030 6C696E6B 		.ascii	"linkmain:%s \012\015\000"
 101      6D61696E 
 101      3A257320 
 101      0A0D00
 102              		.section	.text.link_main,"ax",%progbits
 103              		.align	1
 104              		.global	link_main
 105              		.syntax unified
 106              		.thumb
 107              		.thumb_func
 108              		.fpu fpv4-sp-d16
 110              	link_main:
 111              	.LFB4:
  68:C:/Users/SAM.KINUTHIA/.icode/sdk/IoT_LINK_1.0.0/iot_link\link_main.c **** 
  69:C:/Users/SAM.KINUTHIA/.icode/sdk/IoT_LINK_1.0.0/iot_link\link_main.c **** 
  70:C:/Users/SAM.KINUTHIA/.icode/sdk/IoT_LINK_1.0.0/iot_link\link_main.c **** static int s_link_start = 0;
  71:C:/Users/SAM.KINUTHIA/.icode/sdk/IoT_LINK_1.0.0/iot_link\link_main.c **** int link_main(void *args)
  72:C:/Users/SAM.KINUTHIA/.icode/sdk/IoT_LINK_1.0.0/iot_link\link_main.c **** {
 112              		.loc 1 72 0
 113              		.cfi_startproc
 114              		@ args = 0, pretend = 0, frame = 8
 115              		@ frame_needed = 1, uses_anonymous_args = 0
 116 0000 80B5     		push	{r7, lr}
 117              	.LCFI4:
 118              		.cfi_def_cfa_offset 8
 119              		.cfi_offset 7, -8
 120              		.cfi_offset 14, -4
 121 0002 82B0     		sub	sp, sp, #8
 122              	.LCFI5:
 123              		.cfi_def_cfa_offset 16
 124 0004 00AF     		add	r7, sp, #0
 125              	.LCFI6:
 126              		.cfi_def_cfa_register 7
 127 0006 7860     		str	r0, [r7, #4]
  73:C:/Users/SAM.KINUTHIA/.icode/sdk/IoT_LINK_1.0.0/iot_link\link_main.c ****     ///< install the RTOS kernel for the link
  74:C:/Users/SAM.KINUTHIA/.icode/sdk/IoT_LINK_1.0.0/iot_link\link_main.c ****     if(s_link_start)
 128              		.loc 1 74 0
 129 0008 0D4B     		ldr	r3, .L8
 130 000a 1B68     		ldr	r3, [r3]
 131 000c 002B     		cmp	r3, #0
 132 000e 02D0     		beq	.L6
  75:C:/Users/SAM.KINUTHIA/.icode/sdk/IoT_LINK_1.0.0/iot_link\link_main.c ****     {
  76:C:/Users/SAM.KINUTHIA/.icode/sdk/IoT_LINK_1.0.0/iot_link\link_main.c ****        return -1;
 133              		.loc 1 76 0
 134 0010 4FF0FF33 		mov	r3, #-1
 135 0014 10E0     		b	.L7
 136              	.L6:
  77:C:/Users/SAM.KINUTHIA/.icode/sdk/IoT_LINK_1.0.0/iot_link\link_main.c ****     }
  78:C:/Users/SAM.KINUTHIA/.icode/sdk/IoT_LINK_1.0.0/iot_link\link_main.c ****     s_link_start =1;
 137              		.loc 1 78 0
 138 0016 0A4B     		ldr	r3, .L8
 139 0018 0122     		movs	r2, #1
 140 001a 1A60     		str	r2, [r3]
  79:C:/Users/SAM.KINUTHIA/.icode/sdk/IoT_LINK_1.0.0/iot_link\link_main.c **** 
  80:C:/Users/SAM.KINUTHIA/.icode/sdk/IoT_LINK_1.0.0/iot_link\link_main.c ****     osal_init();
ARM GAS  C:\Users\SAM~1.KIN\AppData\Local\Temp\ccxm8mgn.s 			page 5


 141              		.loc 1 80 0
 142 001c FFF7FEFF 		bl	osal_init
  81:C:/Users/SAM.KINUTHIA/.icode/sdk/IoT_LINK_1.0.0/iot_link\link_main.c ****     printf("linkmain:%s \n\r",linkmain_version());
 143              		.loc 1 81 0
 144 0020 FFF7FEFF 		bl	linkmain_version
 145 0024 0346     		mov	r3, r0
 146 0026 1946     		mov	r1, r3
 147 0028 0648     		ldr	r0, .L8+4
 148 002a FFF7FEFF 		bl	printf
  82:C:/Users/SAM.KINUTHIA/.icode/sdk/IoT_LINK_1.0.0/iot_link\link_main.c **** 
  83:C:/Users/SAM.KINUTHIA/.icode/sdk/IoT_LINK_1.0.0/iot_link\link_main.c **** #if CONFIG_STIMER_ENABLE
  84:C:/Users/SAM.KINUTHIA/.icode/sdk/IoT_LINK_1.0.0/iot_link\link_main.c ****     #include <stimer.h>
  85:C:/Users/SAM.KINUTHIA/.icode/sdk/IoT_LINK_1.0.0/iot_link\link_main.c ****     stimer_init();
  86:C:/Users/SAM.KINUTHIA/.icode/sdk/IoT_LINK_1.0.0/iot_link\link_main.c **** #endif
  87:C:/Users/SAM.KINUTHIA/.icode/sdk/IoT_LINK_1.0.0/iot_link\link_main.c **** 
  88:C:/Users/SAM.KINUTHIA/.icode/sdk/IoT_LINK_1.0.0/iot_link\link_main.c **** #if CONFIG_SHELL_ENABLE
  89:C:/Users/SAM.KINUTHIA/.icode/sdk/IoT_LINK_1.0.0/iot_link\link_main.c ****     #include <shell.h>
  90:C:/Users/SAM.KINUTHIA/.icode/sdk/IoT_LINK_1.0.0/iot_link\link_main.c ****     shell_init();
 149              		.loc 1 90 0
 150 002e FFF7FEFF 		bl	shell_init
  91:C:/Users/SAM.KINUTHIA/.icode/sdk/IoT_LINK_1.0.0/iot_link\link_main.c **** #endif
  92:C:/Users/SAM.KINUTHIA/.icode/sdk/IoT_LINK_1.0.0/iot_link\link_main.c **** 
  93:C:/Users/SAM.KINUTHIA/.icode/sdk/IoT_LINK_1.0.0/iot_link\link_main.c ****     /* add loader code here */
  94:C:/Users/SAM.KINUTHIA/.icode/sdk/IoT_LINK_1.0.0/iot_link\link_main.c **** #if CONFIG_OTA_ENABLE
  95:C:/Users/SAM.KINUTHIA/.icode/sdk/IoT_LINK_1.0.0/iot_link\link_main.c ****     extern void hal_init_ota(void);
  96:C:/Users/SAM.KINUTHIA/.icode/sdk/IoT_LINK_1.0.0/iot_link\link_main.c ****     hal_init_ota();
  97:C:/Users/SAM.KINUTHIA/.icode/sdk/IoT_LINK_1.0.0/iot_link\link_main.c **** #endif
  98:C:/Users/SAM.KINUTHIA/.icode/sdk/IoT_LINK_1.0.0/iot_link\link_main.c **** 
  99:C:/Users/SAM.KINUTHIA/.icode/sdk/IoT_LINK_1.0.0/iot_link\link_main.c **** #if CONFIG_LOADER_ENABLE
 100:C:/Users/SAM.KINUTHIA/.icode/sdk/IoT_LINK_1.0.0/iot_link\link_main.c ****     printf("loader main!\n");
 101:C:/Users/SAM.KINUTHIA/.icode/sdk/IoT_LINK_1.0.0/iot_link\link_main.c ****     extern int ota_detection();
 102:C:/Users/SAM.KINUTHIA/.icode/sdk/IoT_LINK_1.0.0/iot_link\link_main.c ****     ota_detection();
 103:C:/Users/SAM.KINUTHIA/.icode/sdk/IoT_LINK_1.0.0/iot_link\link_main.c ****     loader_main();
 104:C:/Users/SAM.KINUTHIA/.icode/sdk/IoT_LINK_1.0.0/iot_link\link_main.c ****     return;
 105:C:/Users/SAM.KINUTHIA/.icode/sdk/IoT_LINK_1.0.0/iot_link\link_main.c **** #endif
 106:C:/Users/SAM.KINUTHIA/.icode/sdk/IoT_LINK_1.0.0/iot_link\link_main.c ****     /* add loader code here end */
 107:C:/Users/SAM.KINUTHIA/.icode/sdk/IoT_LINK_1.0.0/iot_link\link_main.c **** 
 108:C:/Users/SAM.KINUTHIA/.icode/sdk/IoT_LINK_1.0.0/iot_link\link_main.c **** ///< install the driver framework
 109:C:/Users/SAM.KINUTHIA/.icode/sdk/IoT_LINK_1.0.0/iot_link\link_main.c **** #if CONFIG_DRIVER_ENABLE
 110:C:/Users/SAM.KINUTHIA/.icode/sdk/IoT_LINK_1.0.0/iot_link\link_main.c ****     #include <driver.h>
 111:C:/Users/SAM.KINUTHIA/.icode/sdk/IoT_LINK_1.0.0/iot_link\link_main.c ****     ///< install the driver framework for the link
 112:C:/Users/SAM.KINUTHIA/.icode/sdk/IoT_LINK_1.0.0/iot_link\link_main.c ****     los_driv_init();
 113:C:/Users/SAM.KINUTHIA/.icode/sdk/IoT_LINK_1.0.0/iot_link\link_main.c **** #endif
 114:C:/Users/SAM.KINUTHIA/.icode/sdk/IoT_LINK_1.0.0/iot_link\link_main.c **** 
 115:C:/Users/SAM.KINUTHIA/.icode/sdk/IoT_LINK_1.0.0/iot_link\link_main.c **** 
 116:C:/Users/SAM.KINUTHIA/.icode/sdk/IoT_LINK_1.0.0/iot_link\link_main.c **** ///< install the at framework
 117:C:/Users/SAM.KINUTHIA/.icode/sdk/IoT_LINK_1.0.0/iot_link\link_main.c **** #if CONFIG_AT_ENABLE
 118:C:/Users/SAM.KINUTHIA/.icode/sdk/IoT_LINK_1.0.0/iot_link\link_main.c ****     #include <at.h>
 119:C:/Users/SAM.KINUTHIA/.icode/sdk/IoT_LINK_1.0.0/iot_link\link_main.c ****     #include <iot_link_config.h>
 120:C:/Users/SAM.KINUTHIA/.icode/sdk/IoT_LINK_1.0.0/iot_link\link_main.c ****     extern bool_t uart_at_init(int baud);
 121:C:/Users/SAM.KINUTHIA/.icode/sdk/IoT_LINK_1.0.0/iot_link\link_main.c ****     ///< install the at framework for the link
 122:C:/Users/SAM.KINUTHIA/.icode/sdk/IoT_LINK_1.0.0/iot_link\link_main.c ****     uart_at_init(CONFIG_AT_BAUDRATE);
 123:C:/Users/SAM.KINUTHIA/.icode/sdk/IoT_LINK_1.0.0/iot_link\link_main.c ****     at_init(CONFIG_AT_DEVICENAME);
 124:C:/Users/SAM.KINUTHIA/.icode/sdk/IoT_LINK_1.0.0/iot_link\link_main.c **** #endif
 125:C:/Users/SAM.KINUTHIA/.icode/sdk/IoT_LINK_1.0.0/iot_link\link_main.c **** 
 126:C:/Users/SAM.KINUTHIA/.icode/sdk/IoT_LINK_1.0.0/iot_link\link_main.c **** ///< install the cJSON, for the oc mqtt agent need the cJSON
 127:C:/Users/SAM.KINUTHIA/.icode/sdk/IoT_LINK_1.0.0/iot_link\link_main.c **** #if CONFIG_JSON_ENABLE
ARM GAS  C:\Users\SAM~1.KIN\AppData\Local\Temp\ccxm8mgn.s 			page 6


 128:C:/Users/SAM.KINUTHIA/.icode/sdk/IoT_LINK_1.0.0/iot_link\link_main.c ****     #include <cJSON.h>
 129:C:/Users/SAM.KINUTHIA/.icode/sdk/IoT_LINK_1.0.0/iot_link\link_main.c **** 
 130:C:/Users/SAM.KINUTHIA/.icode/sdk/IoT_LINK_1.0.0/iot_link\link_main.c ****     cJSON_Hooks  hook;
 131:C:/Users/SAM.KINUTHIA/.icode/sdk/IoT_LINK_1.0.0/iot_link\link_main.c ****     hook.free_fn = osal_free;
 132:C:/Users/SAM.KINUTHIA/.icode/sdk/IoT_LINK_1.0.0/iot_link\link_main.c ****     hook.malloc_fn = osal_malloc;
 133:C:/Users/SAM.KINUTHIA/.icode/sdk/IoT_LINK_1.0.0/iot_link\link_main.c ****     cJSON_InitHooks(&hook);
 134:C:/Users/SAM.KINUTHIA/.icode/sdk/IoT_LINK_1.0.0/iot_link\link_main.c **** #endif
 135:C:/Users/SAM.KINUTHIA/.icode/sdk/IoT_LINK_1.0.0/iot_link\link_main.c **** 
 136:C:/Users/SAM.KINUTHIA/.icode/sdk/IoT_LINK_1.0.0/iot_link\link_main.c **** 
 137:C:/Users/SAM.KINUTHIA/.icode/sdk/IoT_LINK_1.0.0/iot_link\link_main.c **** //////////////////////////  TCPIP PROTOCOL  /////////////////////////////////////
 138:C:/Users/SAM.KINUTHIA/.icode/sdk/IoT_LINK_1.0.0/iot_link\link_main.c **** 
 139:C:/Users/SAM.KINUTHIA/.icode/sdk/IoT_LINK_1.0.0/iot_link\link_main.c **** #if CONFIG_TCPIP_ENABLE
 140:C:/Users/SAM.KINUTHIA/.icode/sdk/IoT_LINK_1.0.0/iot_link\link_main.c ****     #include <sal.h>
 141:C:/Users/SAM.KINUTHIA/.icode/sdk/IoT_LINK_1.0.0/iot_link\link_main.c ****     link_tcpip_init();
 142:C:/Users/SAM.KINUTHIA/.icode/sdk/IoT_LINK_1.0.0/iot_link\link_main.c **** #endif
 143:C:/Users/SAM.KINUTHIA/.icode/sdk/IoT_LINK_1.0.0/iot_link\link_main.c **** 
 144:C:/Users/SAM.KINUTHIA/.icode/sdk/IoT_LINK_1.0.0/iot_link\link_main.c **** //////////////////////////  DTLS PROTOCOL  /////////////////////////////////////
 145:C:/Users/SAM.KINUTHIA/.icode/sdk/IoT_LINK_1.0.0/iot_link\link_main.c **** #ifdef WITH_DTLS
 146:C:/Users/SAM.KINUTHIA/.icode/sdk/IoT_LINK_1.0.0/iot_link\link_main.c ****     dtls_init();
 147:C:/Users/SAM.KINUTHIA/.icode/sdk/IoT_LINK_1.0.0/iot_link\link_main.c **** #endif
 148:C:/Users/SAM.KINUTHIA/.icode/sdk/IoT_LINK_1.0.0/iot_link\link_main.c **** 
 149:C:/Users/SAM.KINUTHIA/.icode/sdk/IoT_LINK_1.0.0/iot_link\link_main.c **** //////////////////////////  MQTT PROTOCOL  /////////////////////////////////////
 150:C:/Users/SAM.KINUTHIA/.icode/sdk/IoT_LINK_1.0.0/iot_link\link_main.c **** #if CONFIG_MQTT_ENABLE
 151:C:/Users/SAM.KINUTHIA/.icode/sdk/IoT_LINK_1.0.0/iot_link\link_main.c ****     #include <mqtt_al.h>
 152:C:/Users/SAM.KINUTHIA/.icode/sdk/IoT_LINK_1.0.0/iot_link\link_main.c ****     mqtt_al_init();
 153:C:/Users/SAM.KINUTHIA/.icode/sdk/IoT_LINK_1.0.0/iot_link\link_main.c **** #if CONFIG_MQTT_PAHO_ENABLE
 154:C:/Users/SAM.KINUTHIA/.icode/sdk/IoT_LINK_1.0.0/iot_link\link_main.c ****     #include <paho_mqtt_port.h>
 155:C:/Users/SAM.KINUTHIA/.icode/sdk/IoT_LINK_1.0.0/iot_link\link_main.c ****     mqtt_install_pahomqtt();
 156:C:/Users/SAM.KINUTHIA/.icode/sdk/IoT_LINK_1.0.0/iot_link\link_main.c **** #elif CONFIG_MQTT_SINN_ENABLE
 157:C:/Users/SAM.KINUTHIA/.icode/sdk/IoT_LINK_1.0.0/iot_link\link_main.c ****     #include <mqtt_sinn_port.h>
 158:C:/Users/SAM.KINUTHIA/.icode/sdk/IoT_LINK_1.0.0/iot_link\link_main.c ****     mqtt_install_sinnmqtt();
 159:C:/Users/SAM.KINUTHIA/.icode/sdk/IoT_LINK_1.0.0/iot_link\link_main.c **** #endif
 160:C:/Users/SAM.KINUTHIA/.icode/sdk/IoT_LINK_1.0.0/iot_link\link_main.c **** 
 161:C:/Users/SAM.KINUTHIA/.icode/sdk/IoT_LINK_1.0.0/iot_link\link_main.c **** #endif
 162:C:/Users/SAM.KINUTHIA/.icode/sdk/IoT_LINK_1.0.0/iot_link\link_main.c **** 
 163:C:/Users/SAM.KINUTHIA/.icode/sdk/IoT_LINK_1.0.0/iot_link\link_main.c **** 
 164:C:/Users/SAM.KINUTHIA/.icode/sdk/IoT_LINK_1.0.0/iot_link\link_main.c **** //////////////////////////  COAP PROTOCOL  /////////////////////////////////
 165:C:/Users/SAM.KINUTHIA/.icode/sdk/IoT_LINK_1.0.0/iot_link\link_main.c **** #if CONFIG_LITE_COAP_ENABLE
 166:C:/Users/SAM.KINUTHIA/.icode/sdk/IoT_LINK_1.0.0/iot_link\link_main.c ****     #include <litecoap_port.h>
 167:C:/Users/SAM.KINUTHIA/.icode/sdk/IoT_LINK_1.0.0/iot_link\link_main.c ****     coap_install_litecoap();
 168:C:/Users/SAM.KINUTHIA/.icode/sdk/IoT_LINK_1.0.0/iot_link\link_main.c **** #elif CONFIG_LIBCOAP_ENABLE
 169:C:/Users/SAM.KINUTHIA/.icode/sdk/IoT_LINK_1.0.0/iot_link\link_main.c ****     #include <libcoap_port.h>
 170:C:/Users/SAM.KINUTHIA/.icode/sdk/IoT_LINK_1.0.0/iot_link\link_main.c ****     coap_install_libcoap();
 171:C:/Users/SAM.KINUTHIA/.icode/sdk/IoT_LINK_1.0.0/iot_link\link_main.c **** #endif
 172:C:/Users/SAM.KINUTHIA/.icode/sdk/IoT_LINK_1.0.0/iot_link\link_main.c **** 
 173:C:/Users/SAM.KINUTHIA/.icode/sdk/IoT_LINK_1.0.0/iot_link\link_main.c **** //////////////////////////  LWM2M PROTOCOL  /////////////////////////////////
 174:C:/Users/SAM.KINUTHIA/.icode/sdk/IoT_LINK_1.0.0/iot_link\link_main.c **** #if CONFIG_WAKAAMA_ENABLE
 175:C:/Users/SAM.KINUTHIA/.icode/sdk/IoT_LINK_1.0.0/iot_link\link_main.c ****     #include <lwm2m_port.h>
 176:C:/Users/SAM.KINUTHIA/.icode/sdk/IoT_LINK_1.0.0/iot_link\link_main.c ****     lwm2m_install();
 177:C:/Users/SAM.KINUTHIA/.icode/sdk/IoT_LINK_1.0.0/iot_link\link_main.c **** #endif
 178:C:/Users/SAM.KINUTHIA/.icode/sdk/IoT_LINK_1.0.0/iot_link\link_main.c **** 
 179:C:/Users/SAM.KINUTHIA/.icode/sdk/IoT_LINK_1.0.0/iot_link\link_main.c **** //////////////////////////  OC MQTT  //////////////////////////////////
 180:C:/Users/SAM.KINUTHIA/.icode/sdk/IoT_LINK_1.0.0/iot_link\link_main.c **** 
 181:C:/Users/SAM.KINUTHIA/.icode/sdk/IoT_LINK_1.0.0/iot_link\link_main.c **** #if CONFIG_OC_MQTT_ENABLE
 182:C:/Users/SAM.KINUTHIA/.icode/sdk/IoT_LINK_1.0.0/iot_link\link_main.c ****     #include <oc_mqtt_al.h>
 183:C:/Users/SAM.KINUTHIA/.icode/sdk/IoT_LINK_1.0.0/iot_link\link_main.c ****     oc_mqtt_init();
 184:C:/Users/SAM.KINUTHIA/.icode/sdk/IoT_LINK_1.0.0/iot_link\link_main.c **** 
ARM GAS  C:\Users\SAM~1.KIN\AppData\Local\Temp\ccxm8mgn.s 			page 7


 185:C:/Users/SAM.KINUTHIA/.icode/sdk/IoT_LINK_1.0.0/iot_link\link_main.c ****     #if CONFIG_ATINY_MQTT_ENABLE
 186:C:/Users/SAM.KINUTHIA/.icode/sdk/IoT_LINK_1.0.0/iot_link\link_main.c ****         #include <atiny_mqtt.h>
 187:C:/Users/SAM.KINUTHIA/.icode/sdk/IoT_LINK_1.0.0/iot_link\link_main.c ****         oc_mqtt_install_atiny_mqtt();
 188:C:/Users/SAM.KINUTHIA/.icode/sdk/IoT_LINK_1.0.0/iot_link\link_main.c ****     #endif
 189:C:/Users/SAM.KINUTHIA/.icode/sdk/IoT_LINK_1.0.0/iot_link\link_main.c **** 
 190:C:/Users/SAM.KINUTHIA/.icode/sdk/IoT_LINK_1.0.0/iot_link\link_main.c **** 
 191:C:/Users/SAM.KINUTHIA/.icode/sdk/IoT_LINK_1.0.0/iot_link\link_main.c ****     #if CONFIG_OC_MQTT_TINY_ENABLE
 192:C:/Users/SAM.KINUTHIA/.icode/sdk/IoT_LINK_1.0.0/iot_link\link_main.c ****         #include <oc_mqtt_tiny.h>
 193:C:/Users/SAM.KINUTHIA/.icode/sdk/IoT_LINK_1.0.0/iot_link\link_main.c ****         oc_mqtt_tiny_install();
 194:C:/Users/SAM.KINUTHIA/.icode/sdk/IoT_LINK_1.0.0/iot_link\link_main.c ****     #endif
 195:C:/Users/SAM.KINUTHIA/.icode/sdk/IoT_LINK_1.0.0/iot_link\link_main.c **** 
 196:C:/Users/SAM.KINUTHIA/.icode/sdk/IoT_LINK_1.0.0/iot_link\link_main.c **** 
 197:C:/Users/SAM.KINUTHIA/.icode/sdk/IoT_LINK_1.0.0/iot_link\link_main.c ****     #if CONFIG_OC_MQTT_EC2X_ENABLE
 198:C:/Users/SAM.KINUTHIA/.icode/sdk/IoT_LINK_1.0.0/iot_link\link_main.c ****         #include <ec2x_oc.h>
 199:C:/Users/SAM.KINUTHIA/.icode/sdk/IoT_LINK_1.0.0/iot_link\link_main.c ****         ec2x_oc_init();
 200:C:/Users/SAM.KINUTHIA/.icode/sdk/IoT_LINK_1.0.0/iot_link\link_main.c ****     #endif
 201:C:/Users/SAM.KINUTHIA/.icode/sdk/IoT_LINK_1.0.0/iot_link\link_main.c **** 
 202:C:/Users/SAM.KINUTHIA/.icode/sdk/IoT_LINK_1.0.0/iot_link\link_main.c **** 
 203:C:/Users/SAM.KINUTHIA/.icode/sdk/IoT_LINK_1.0.0/iot_link\link_main.c **** #endif
 204:C:/Users/SAM.KINUTHIA/.icode/sdk/IoT_LINK_1.0.0/iot_link\link_main.c **** 
 205:C:/Users/SAM.KINUTHIA/.icode/sdk/IoT_LINK_1.0.0/iot_link\link_main.c **** ////////////////////////////  OC LWM2M ///////     /////////////////////////////
 206:C:/Users/SAM.KINUTHIA/.icode/sdk/IoT_LINK_1.0.0/iot_link\link_main.c **** 
 207:C:/Users/SAM.KINUTHIA/.icode/sdk/IoT_LINK_1.0.0/iot_link\link_main.c **** #if CONFIG_OC_LWM2M_ENABLE
 208:C:/Users/SAM.KINUTHIA/.icode/sdk/IoT_LINK_1.0.0/iot_link\link_main.c ****     #include <oc_lwm2m_al.h>
 209:C:/Users/SAM.KINUTHIA/.icode/sdk/IoT_LINK_1.0.0/iot_link\link_main.c ****     oc_lwm2m_init();
 210:C:/Users/SAM.KINUTHIA/.icode/sdk/IoT_LINK_1.0.0/iot_link\link_main.c **** 
 211:C:/Users/SAM.KINUTHIA/.icode/sdk/IoT_LINK_1.0.0/iot_link\link_main.c ****     #if CONFIG_OC_LWM2M_AGENT_ENABLE
 212:C:/Users/SAM.KINUTHIA/.icode/sdk/IoT_LINK_1.0.0/iot_link\link_main.c ****         #include <agent_lwm2m.h>
 213:C:/Users/SAM.KINUTHIA/.icode/sdk/IoT_LINK_1.0.0/iot_link\link_main.c ****         oc_lwm2m_install_agent();
 214:C:/Users/SAM.KINUTHIA/.icode/sdk/IoT_LINK_1.0.0/iot_link\link_main.c ****     #endif
 215:C:/Users/SAM.KINUTHIA/.icode/sdk/IoT_LINK_1.0.0/iot_link\link_main.c **** 
 216:C:/Users/SAM.KINUTHIA/.icode/sdk/IoT_LINK_1.0.0/iot_link\link_main.c ****     #if CONFIG_OC_LWM2M_BOUDICA150_ENABLE
 217:C:/Users/SAM.KINUTHIA/.icode/sdk/IoT_LINK_1.0.0/iot_link\link_main.c ****         #include <boudica150_oc.h>
 218:C:/Users/SAM.KINUTHIA/.icode/sdk/IoT_LINK_1.0.0/iot_link\link_main.c ****         #define cn_app_bands    "5,8,20"
 219:C:/Users/SAM.KINUTHIA/.icode/sdk/IoT_LINK_1.0.0/iot_link\link_main.c ****         boudica150_init(NULL,NULL,cn_app_bands);
 220:C:/Users/SAM.KINUTHIA/.icode/sdk/IoT_LINK_1.0.0/iot_link\link_main.c ****     #endif
 221:C:/Users/SAM.KINUTHIA/.icode/sdk/IoT_LINK_1.0.0/iot_link\link_main.c **** 
 222:C:/Users/SAM.KINUTHIA/.icode/sdk/IoT_LINK_1.0.0/iot_link\link_main.c **** #endif
 223:C:/Users/SAM.KINUTHIA/.icode/sdk/IoT_LINK_1.0.0/iot_link\link_main.c **** 
 224:C:/Users/SAM.KINUTHIA/.icode/sdk/IoT_LINK_1.0.0/iot_link\link_main.c **** ////////////////////////////  OC COAP ////////     /////////////////////////////
 225:C:/Users/SAM.KINUTHIA/.icode/sdk/IoT_LINK_1.0.0/iot_link\link_main.c **** #if CONFIG_OC_COAP_ENABLE
 226:C:/Users/SAM.KINUTHIA/.icode/sdk/IoT_LINK_1.0.0/iot_link\link_main.c **** 	#include <oc_coap_al.h>
 227:C:/Users/SAM.KINUTHIA/.icode/sdk/IoT_LINK_1.0.0/iot_link\link_main.c ****     oc_coap_init();
 228:C:/Users/SAM.KINUTHIA/.icode/sdk/IoT_LINK_1.0.0/iot_link\link_main.c **** 
 229:C:/Users/SAM.KINUTHIA/.icode/sdk/IoT_LINK_1.0.0/iot_link\link_main.c ****     #if CONFIG_ATINY_COAP_ENABLE
 230:C:/Users/SAM.KINUTHIA/.icode/sdk/IoT_LINK_1.0.0/iot_link\link_main.c ****         #include <atiny_coap.h>
 231:C:/Users/SAM.KINUTHIA/.icode/sdk/IoT_LINK_1.0.0/iot_link\link_main.c ****         oc_coap_install_agent();
 232:C:/Users/SAM.KINUTHIA/.icode/sdk/IoT_LINK_1.0.0/iot_link\link_main.c ****     #endif
 233:C:/Users/SAM.KINUTHIA/.icode/sdk/IoT_LINK_1.0.0/iot_link\link_main.c **** 
 234:C:/Users/SAM.KINUTHIA/.icode/sdk/IoT_LINK_1.0.0/iot_link\link_main.c **** #endif
 235:C:/Users/SAM.KINUTHIA/.icode/sdk/IoT_LINK_1.0.0/iot_link\link_main.c **** 
 236:C:/Users/SAM.KINUTHIA/.icode/sdk/IoT_LINK_1.0.0/iot_link\link_main.c **** #if CONFIG_DEMOS_ENABLE
 237:C:/Users/SAM.KINUTHIA/.icode/sdk/IoT_LINK_1.0.0/iot_link\link_main.c ****     extern int standard_app_demo_main();
 238:C:/Users/SAM.KINUTHIA/.icode/sdk/IoT_LINK_1.0.0/iot_link\link_main.c ****     standard_app_demo_main();
 151              		.loc 1 238 0
 152 0032 FFF7FEFF 		bl	standard_app_demo_main
 239:C:/Users/SAM.KINUTHIA/.icode/sdk/IoT_LINK_1.0.0/iot_link\link_main.c **** #endif
ARM GAS  C:\Users\SAM~1.KIN\AppData\Local\Temp\ccxm8mgn.s 			page 8


 240:C:/Users/SAM.KINUTHIA/.icode/sdk/IoT_LINK_1.0.0/iot_link\link_main.c **** 
 241:C:/Users/SAM.KINUTHIA/.icode/sdk/IoT_LINK_1.0.0/iot_link\link_main.c **** #if CONFIG_AUTO_TEST
 242:C:/Users/SAM.KINUTHIA/.icode/sdk/IoT_LINK_1.0.0/iot_link\link_main.c ****     #include <test_case.h>
 243:C:/Users/SAM.KINUTHIA/.icode/sdk/IoT_LINK_1.0.0/iot_link\link_main.c ****     autotest_start();
 244:C:/Users/SAM.KINUTHIA/.icode/sdk/IoT_LINK_1.0.0/iot_link\link_main.c **** #endif
 245:C:/Users/SAM.KINUTHIA/.icode/sdk/IoT_LINK_1.0.0/iot_link\link_main.c **** 
 246:C:/Users/SAM.KINUTHIA/.icode/sdk/IoT_LINK_1.0.0/iot_link\link_main.c ****     return 0;
 153              		.loc 1 246 0
 154 0036 0023     		movs	r3, #0
 155              	.L7:
 247:C:/Users/SAM.KINUTHIA/.icode/sdk/IoT_LINK_1.0.0/iot_link\link_main.c **** }
 156              		.loc 1 247 0
 157 0038 1846     		mov	r0, r3
 158 003a 0837     		adds	r7, r7, #8
 159              	.LCFI7:
 160              		.cfi_def_cfa_offset 8
 161 003c BD46     		mov	sp, r7
 162              	.LCFI8:
 163              		.cfi_def_cfa_register 13
 164              		@ sp needed
 165 003e 80BD     		pop	{r7, pc}
 166              	.L9:
 167              		.align	2
 168              	.L8:
 169 0040 00000000 		.word	s_link_start
 170 0044 30000000 		.word	.LC3
 171              		.cfi_endproc
 172              	.LFE4:
 174              		.text
 175              	.Letext0:
 176              		.file 2 "c:\\users\\sam.kinuthia\\opensourcetools\\gnu tools arm embedded\\7 2018-q2-update\\arm-n
 177              		.file 3 "c:\\users\\sam.kinuthia\\opensourcetools\\gnu tools arm embedded\\7 2018-q2-update\\arm-n
 178              		.file 4 "c:\\users\\sam.kinuthia\\opensourcetools\\gnu tools arm embedded\\7 2018-q2-update\\lib\\
 179              		.file 5 "c:\\users\\sam.kinuthia\\opensourcetools\\gnu tools arm embedded\\7 2018-q2-update\\arm-n
 180              		.file 6 "C:/Users/SAM.KINUTHIA/.icode/sdk/IoT_LINK_1.0.0/iot_link/inc/shell.h"
ARM GAS  C:\Users\SAM~1.KIN\AppData\Local\Temp\ccxm8mgn.s 			page 9

