ARM GAS  C:\Users\SAM~1.KIN\AppData\Local\Temp\ccvQYdW7.s 			page 1


   1              		.cpu cortex-m4
   2              		.eabi_attribute 27, 1
   3              		.eabi_attribute 28, 1
   4              		.eabi_attribute 20, 1
   5              		.eabi_attribute 21, 1
   6              		.eabi_attribute 23, 3
   7              		.eabi_attribute 24, 1
   8              		.eabi_attribute 25, 1
   9              		.eabi_attribute 26, 1
  10              		.eabi_attribute 30, 6
  11              		.eabi_attribute 34, 1
  12              		.eabi_attribute 18, 4
  13              		.file	"los_misc.c"
  14              		.text
  15              	.Ltext0:
  16              		.cfi_sections	.debug_frame
  17              		.section	.text.LOS_Align,"ax",%progbits
  18              		.align	1
  19              		.global	LOS_Align
  20              		.syntax unified
  21              		.thumb
  22              		.thumb_func
  23              		.fpu fpv4-sp-d16
  25              	LOS_Align:
  26              	.LFB289:
  27              		.file 1 "C:/Users/SAM.KINUTHIA/.icode/sdk/IoT_LINK_1.0.0/iot_link/os/liteos/base/misc/los_misc.c"
   1:C:/Users/SAM.KINUTHIA/.icode/sdk/IoT_LINK_1.0.0/iot_link/os/liteos/base/misc\los_misc.c **** /*----------------------------------------------------------------------------
   2:C:/Users/SAM.KINUTHIA/.icode/sdk/IoT_LINK_1.0.0/iot_link/os/liteos/base/misc\los_misc.c ****  * Copyright (c) <2013-2015>, <Huawei Technologies Co., Ltd>
   3:C:/Users/SAM.KINUTHIA/.icode/sdk/IoT_LINK_1.0.0/iot_link/os/liteos/base/misc\los_misc.c ****  * All rights reserved.
   4:C:/Users/SAM.KINUTHIA/.icode/sdk/IoT_LINK_1.0.0/iot_link/os/liteos/base/misc\los_misc.c ****  * Redistribution and use in source and binary forms, with or without modification,
   5:C:/Users/SAM.KINUTHIA/.icode/sdk/IoT_LINK_1.0.0/iot_link/os/liteos/base/misc\los_misc.c ****  * are permitted provided that the following conditions are met:
   6:C:/Users/SAM.KINUTHIA/.icode/sdk/IoT_LINK_1.0.0/iot_link/os/liteos/base/misc\los_misc.c ****  * 1. Redistributions of source code must retain the above copyright notice, this list of
   7:C:/Users/SAM.KINUTHIA/.icode/sdk/IoT_LINK_1.0.0/iot_link/os/liteos/base/misc\los_misc.c ****  * conditions and the following disclaimer.
   8:C:/Users/SAM.KINUTHIA/.icode/sdk/IoT_LINK_1.0.0/iot_link/os/liteos/base/misc\los_misc.c ****  * 2. Redistributions in binary form must reproduce the above copyright notice, this list
   9:C:/Users/SAM.KINUTHIA/.icode/sdk/IoT_LINK_1.0.0/iot_link/os/liteos/base/misc\los_misc.c ****  * of conditions and the following disclaimer in the documentation and/or other materials
  10:C:/Users/SAM.KINUTHIA/.icode/sdk/IoT_LINK_1.0.0/iot_link/os/liteos/base/misc\los_misc.c ****  * provided with the distribution.
  11:C:/Users/SAM.KINUTHIA/.icode/sdk/IoT_LINK_1.0.0/iot_link/os/liteos/base/misc\los_misc.c ****  * 3. Neither the name of the copyright holder nor the names of its contributors may be used
  12:C:/Users/SAM.KINUTHIA/.icode/sdk/IoT_LINK_1.0.0/iot_link/os/liteos/base/misc\los_misc.c ****  * to endorse or promote products derived from this software without specific prior written
  13:C:/Users/SAM.KINUTHIA/.icode/sdk/IoT_LINK_1.0.0/iot_link/os/liteos/base/misc\los_misc.c ****  * permission.
  14:C:/Users/SAM.KINUTHIA/.icode/sdk/IoT_LINK_1.0.0/iot_link/os/liteos/base/misc\los_misc.c ****  * THIS SOFTWARE IS PROVIDED BY THE COPYRIGHT HOLDERS AND CONTRIBUTORS
  15:C:/Users/SAM.KINUTHIA/.icode/sdk/IoT_LINK_1.0.0/iot_link/os/liteos/base/misc\los_misc.c ****  * "AS IS" AND ANY EXPRESS OR IMPLIED WARRANTIES, INCLUDING, BUT NOT LIMITED TO,
  16:C:/Users/SAM.KINUTHIA/.icode/sdk/IoT_LINK_1.0.0/iot_link/os/liteos/base/misc\los_misc.c ****  * THE IMPLIED WARRANTIES OF MERCHANTABILITY AND FITNESS FOR A PARTICULAR
  17:C:/Users/SAM.KINUTHIA/.icode/sdk/IoT_LINK_1.0.0/iot_link/os/liteos/base/misc\los_misc.c ****  * PURPOSE ARE DISCLAIMED. IN NO EVENT SHALL THE COPYRIGHT HOLDER OR
  18:C:/Users/SAM.KINUTHIA/.icode/sdk/IoT_LINK_1.0.0/iot_link/os/liteos/base/misc\los_misc.c ****  * CONTRIBUTORS BE LIABLE FOR ANY DIRECT, INDIRECT, INCIDENTAL, SPECIAL,
  19:C:/Users/SAM.KINUTHIA/.icode/sdk/IoT_LINK_1.0.0/iot_link/os/liteos/base/misc\los_misc.c ****  * EXEMPLARY, OR CONSEQUENTIAL DAMAGES (INCLUDING, BUT NOT LIMITED TO,
  20:C:/Users/SAM.KINUTHIA/.icode/sdk/IoT_LINK_1.0.0/iot_link/os/liteos/base/misc\los_misc.c ****  * PROCUREMENT OF SUBSTITUTE GOODS OR SERVICES; LOSS OF USE, DATA, OR PROFITS;
  21:C:/Users/SAM.KINUTHIA/.icode/sdk/IoT_LINK_1.0.0/iot_link/os/liteos/base/misc\los_misc.c ****  * OR BUSINESS INTERRUPTION) HOWEVER CAUSED AND ON ANY THEORY OF LIABILITY,
  22:C:/Users/SAM.KINUTHIA/.icode/sdk/IoT_LINK_1.0.0/iot_link/os/liteos/base/misc\los_misc.c ****  * WHETHER IN CONTRACT, STRICT LIABILITY, OR TORT (INCLUDING NEGLIGENCE OR
  23:C:/Users/SAM.KINUTHIA/.icode/sdk/IoT_LINK_1.0.0/iot_link/os/liteos/base/misc\los_misc.c ****  * OTHERWISE) ARISING IN ANY WAY OUT OF THE USE OF THIS SOFTWARE, EVEN IF
  24:C:/Users/SAM.KINUTHIA/.icode/sdk/IoT_LINK_1.0.0/iot_link/os/liteos/base/misc\los_misc.c ****  * ADVISED OF THE POSSIBILITY OF SUCH DAMAGE.
  25:C:/Users/SAM.KINUTHIA/.icode/sdk/IoT_LINK_1.0.0/iot_link/os/liteos/base/misc\los_misc.c ****  *---------------------------------------------------------------------------*/
  26:C:/Users/SAM.KINUTHIA/.icode/sdk/IoT_LINK_1.0.0/iot_link/os/liteos/base/misc\los_misc.c **** /*----------------------------------------------------------------------------
  27:C:/Users/SAM.KINUTHIA/.icode/sdk/IoT_LINK_1.0.0/iot_link/os/liteos/base/misc\los_misc.c ****  * Notice of Export Control Law
  28:C:/Users/SAM.KINUTHIA/.icode/sdk/IoT_LINK_1.0.0/iot_link/os/liteos/base/misc\los_misc.c ****  * ===============================================
  29:C:/Users/SAM.KINUTHIA/.icode/sdk/IoT_LINK_1.0.0/iot_link/os/liteos/base/misc\los_misc.c ****  * Huawei LiteOS may be subject to applicable export control laws and regulations, which might
  30:C:/Users/SAM.KINUTHIA/.icode/sdk/IoT_LINK_1.0.0/iot_link/os/liteos/base/misc\los_misc.c ****  * include those applicable to Huawei LiteOS of U.S. and the country in which you are located.
  31:C:/Users/SAM.KINUTHIA/.icode/sdk/IoT_LINK_1.0.0/iot_link/os/liteos/base/misc\los_misc.c ****  * Import, export and usage of Huawei LiteOS in any manner by you shall be in compliance with such
ARM GAS  C:\Users\SAM~1.KIN\AppData\Local\Temp\ccvQYdW7.s 			page 2


  32:C:/Users/SAM.KINUTHIA/.icode/sdk/IoT_LINK_1.0.0/iot_link/os/liteos/base/misc\los_misc.c ****  * applicable export control laws and regulations.
  33:C:/Users/SAM.KINUTHIA/.icode/sdk/IoT_LINK_1.0.0/iot_link/os/liteos/base/misc\los_misc.c ****  *---------------------------------------------------------------------------*/
  34:C:/Users/SAM.KINUTHIA/.icode/sdk/IoT_LINK_1.0.0/iot_link/os/liteos/base/misc\los_misc.c **** 
  35:C:/Users/SAM.KINUTHIA/.icode/sdk/IoT_LINK_1.0.0/iot_link/os/liteos/base/misc\los_misc.c **** #include "los_base.ph"
  36:C:/Users/SAM.KINUTHIA/.icode/sdk/IoT_LINK_1.0.0/iot_link/os/liteos/base/misc\los_misc.c **** #include "los_sys.ph"
  37:C:/Users/SAM.KINUTHIA/.icode/sdk/IoT_LINK_1.0.0/iot_link/os/liteos/base/misc\los_misc.c **** #include "los_task.ph"
  38:C:/Users/SAM.KINUTHIA/.icode/sdk/IoT_LINK_1.0.0/iot_link/os/liteos/base/misc\los_misc.c **** #include "los_hwi.h"
  39:C:/Users/SAM.KINUTHIA/.icode/sdk/IoT_LINK_1.0.0/iot_link/os/liteos/base/misc\los_misc.c **** 
  40:C:/Users/SAM.KINUTHIA/.icode/sdk/IoT_LINK_1.0.0/iot_link/os/liteos/base/misc\los_misc.c **** LITE_OS_SEC_TEXT UINT32 LOS_Align(UINT32 uwAddr, UINT32 uwBoundary)
  41:C:/Users/SAM.KINUTHIA/.icode/sdk/IoT_LINK_1.0.0/iot_link/os/liteos/base/misc\los_misc.c **** {
  28              		.loc 1 41 0
  29              		.cfi_startproc
  30              		@ args = 0, pretend = 0, frame = 8
  31              		@ frame_needed = 1, uses_anonymous_args = 0
  32              		@ link register save eliminated.
  33 0000 80B4     		push	{r7}
  34              	.LCFI0:
  35              		.cfi_def_cfa_offset 4
  36              		.cfi_offset 7, -4
  37 0002 83B0     		sub	sp, sp, #12
  38              	.LCFI1:
  39              		.cfi_def_cfa_offset 16
  40 0004 00AF     		add	r7, sp, #0
  41              	.LCFI2:
  42              		.cfi_def_cfa_register 7
  43 0006 7860     		str	r0, [r7, #4]
  44 0008 3960     		str	r1, [r7]
  42:C:/Users/SAM.KINUTHIA/.icode/sdk/IoT_LINK_1.0.0/iot_link/os/liteos/base/misc\los_misc.c ****     if (uwAddr + uwBoundary - 1 > uwAddr) {
  45              		.loc 1 42 0
  46 000a 7A68     		ldr	r2, [r7, #4]
  47 000c 3B68     		ldr	r3, [r7]
  48 000e 1344     		add	r3, r3, r2
  49 0010 013B     		subs	r3, r3, #1
  50 0012 7A68     		ldr	r2, [r7, #4]
  51 0014 9A42     		cmp	r2, r3
  52 0016 07D2     		bcs	.L2
  43:C:/Users/SAM.KINUTHIA/.icode/sdk/IoT_LINK_1.0.0/iot_link/os/liteos/base/misc\los_misc.c ****         return (uwAddr + uwBoundary - 1) & ~(uwBoundary - 1);
  53              		.loc 1 43 0
  54 0018 7A68     		ldr	r2, [r7, #4]
  55 001a 3B68     		ldr	r3, [r7]
  56 001c 1344     		add	r3, r3, r2
  57 001e 5A1E     		subs	r2, r3, #1
  58 0020 3B68     		ldr	r3, [r7]
  59 0022 5B42     		negs	r3, r3
  60 0024 1340     		ands	r3, r3, r2
  61 0026 03E0     		b	.L3
  62              	.L2:
  44:C:/Users/SAM.KINUTHIA/.icode/sdk/IoT_LINK_1.0.0/iot_link/os/liteos/base/misc\los_misc.c ****     } else {
  45:C:/Users/SAM.KINUTHIA/.icode/sdk/IoT_LINK_1.0.0/iot_link/os/liteos/base/misc\los_misc.c ****         return uwAddr & ~(uwBoundary - 1);
  63              		.loc 1 45 0
  64 0028 3B68     		ldr	r3, [r7]
  65 002a 5A42     		negs	r2, r3
  66 002c 7B68     		ldr	r3, [r7, #4]
  67 002e 1340     		ands	r3, r3, r2
  68              	.L3:
  46:C:/Users/SAM.KINUTHIA/.icode/sdk/IoT_LINK_1.0.0/iot_link/os/liteos/base/misc\los_misc.c ****     }
  47:C:/Users/SAM.KINUTHIA/.icode/sdk/IoT_LINK_1.0.0/iot_link/os/liteos/base/misc\los_misc.c **** }
ARM GAS  C:\Users\SAM~1.KIN\AppData\Local\Temp\ccvQYdW7.s 			page 3


  69              		.loc 1 47 0
  70 0030 1846     		mov	r0, r3
  71 0032 0C37     		adds	r7, r7, #12
  72              	.LCFI3:
  73              		.cfi_def_cfa_offset 4
  74 0034 BD46     		mov	sp, r7
  75              	.LCFI4:
  76              		.cfi_def_cfa_register 13
  77              		@ sp needed
  78 0036 5DF8047B 		ldr	r7, [sp], #4
  79              	.LCFI5:
  80              		.cfi_restore 7
  81              		.cfi_def_cfa_offset 0
  82 003a 7047     		bx	lr
  83              		.cfi_endproc
  84              	.LFE289:
  86              		.section	.text.LOS_Msleep,"ax",%progbits
  87              		.align	1
  88              		.global	LOS_Msleep
  89              		.syntax unified
  90              		.thumb
  91              		.thumb_func
  92              		.fpu fpv4-sp-d16
  94              	LOS_Msleep:
  95              	.LFB290:
  48:C:/Users/SAM.KINUTHIA/.icode/sdk/IoT_LINK_1.0.0/iot_link/os/liteos/base/misc\los_misc.c **** 
  49:C:/Users/SAM.KINUTHIA/.icode/sdk/IoT_LINK_1.0.0/iot_link/os/liteos/base/misc\los_misc.c **** LITE_OS_SEC_TEXT_MINOR VOID LOS_Msleep(UINT32 uwMsecs)
  50:C:/Users/SAM.KINUTHIA/.icode/sdk/IoT_LINK_1.0.0/iot_link/os/liteos/base/misc\los_misc.c **** {
  96              		.loc 1 50 0
  97              		.cfi_startproc
  98              		@ args = 0, pretend = 0, frame = 16
  99              		@ frame_needed = 1, uses_anonymous_args = 0
 100 0000 80B5     		push	{r7, lr}
 101              	.LCFI6:
 102              		.cfi_def_cfa_offset 8
 103              		.cfi_offset 7, -8
 104              		.cfi_offset 14, -4
 105 0002 84B0     		sub	sp, sp, #16
 106              	.LCFI7:
 107              		.cfi_def_cfa_offset 24
 108 0004 00AF     		add	r7, sp, #0
 109              	.LCFI8:
 110              		.cfi_def_cfa_register 7
 111 0006 7860     		str	r0, [r7, #4]
  51:C:/Users/SAM.KINUTHIA/.icode/sdk/IoT_LINK_1.0.0/iot_link/os/liteos/base/misc\los_misc.c ****     UINT32 uwInterval = 0;
 112              		.loc 1 51 0
 113 0008 0023     		movs	r3, #0
 114 000a FB60     		str	r3, [r7, #12]
  52:C:/Users/SAM.KINUTHIA/.icode/sdk/IoT_LINK_1.0.0/iot_link/os/liteos/base/misc\los_misc.c **** 
  53:C:/Users/SAM.KINUTHIA/.icode/sdk/IoT_LINK_1.0.0/iot_link/os/liteos/base/misc\los_misc.c ****     if (OS_INT_ACTIVE)
 115              		.loc 1 53 0
 116 000c FFF7FEFF 		bl	osIntNumGet
 117 0010 0346     		mov	r3, r0
 118 0012 002B     		cmp	r3, #0
 119 0014 12D1     		bne	.L9
  54:C:/Users/SAM.KINUTHIA/.icode/sdk/IoT_LINK_1.0.0/iot_link/os/liteos/base/misc\los_misc.c ****     {
  55:C:/Users/SAM.KINUTHIA/.icode/sdk/IoT_LINK_1.0.0/iot_link/os/liteos/base/misc\los_misc.c ****         return;
ARM GAS  C:\Users\SAM~1.KIN\AppData\Local\Temp\ccvQYdW7.s 			page 4


  56:C:/Users/SAM.KINUTHIA/.icode/sdk/IoT_LINK_1.0.0/iot_link/os/liteos/base/misc\los_misc.c ****     }
  57:C:/Users/SAM.KINUTHIA/.icode/sdk/IoT_LINK_1.0.0/iot_link/os/liteos/base/misc\los_misc.c **** 
  58:C:/Users/SAM.KINUTHIA/.icode/sdk/IoT_LINK_1.0.0/iot_link/os/liteos/base/misc\los_misc.c ****     if (uwMsecs == 0)
 120              		.loc 1 58 0
 121 0016 7B68     		ldr	r3, [r7, #4]
 122 0018 002B     		cmp	r3, #0
 123 001a 02D1     		bne	.L7
  59:C:/Users/SAM.KINUTHIA/.icode/sdk/IoT_LINK_1.0.0/iot_link/os/liteos/base/misc\los_misc.c ****     {
  60:C:/Users/SAM.KINUTHIA/.icode/sdk/IoT_LINK_1.0.0/iot_link/os/liteos/base/misc\los_misc.c ****         uwInterval = 0;
 124              		.loc 1 60 0
 125 001c 0023     		movs	r3, #0
 126 001e FB60     		str	r3, [r7, #12]
 127 0020 08E0     		b	.L8
 128              	.L7:
  61:C:/Users/SAM.KINUTHIA/.icode/sdk/IoT_LINK_1.0.0/iot_link/os/liteos/base/misc\los_misc.c ****     }
  62:C:/Users/SAM.KINUTHIA/.icode/sdk/IoT_LINK_1.0.0/iot_link/os/liteos/base/misc\los_misc.c ****     else
  63:C:/Users/SAM.KINUTHIA/.icode/sdk/IoT_LINK_1.0.0/iot_link/os/liteos/base/misc\los_misc.c ****     {
  64:C:/Users/SAM.KINUTHIA/.icode/sdk/IoT_LINK_1.0.0/iot_link/os/liteos/base/misc\los_misc.c ****         uwInterval = LOS_MS2Tick(uwMsecs);
 129              		.loc 1 64 0
 130 0022 7868     		ldr	r0, [r7, #4]
 131 0024 FFF7FEFF 		bl	LOS_MS2Tick
 132 0028 F860     		str	r0, [r7, #12]
  65:C:/Users/SAM.KINUTHIA/.icode/sdk/IoT_LINK_1.0.0/iot_link/os/liteos/base/misc\los_misc.c ****         if (uwInterval == 0)
 133              		.loc 1 65 0
 134 002a FB68     		ldr	r3, [r7, #12]
 135 002c 002B     		cmp	r3, #0
 136 002e 01D1     		bne	.L8
  66:C:/Users/SAM.KINUTHIA/.icode/sdk/IoT_LINK_1.0.0/iot_link/os/liteos/base/misc\los_misc.c ****         {
  67:C:/Users/SAM.KINUTHIA/.icode/sdk/IoT_LINK_1.0.0/iot_link/os/liteos/base/misc\los_misc.c ****              uwInterval = 1;
 137              		.loc 1 67 0
 138 0030 0123     		movs	r3, #1
 139 0032 FB60     		str	r3, [r7, #12]
 140              	.L8:
  68:C:/Users/SAM.KINUTHIA/.icode/sdk/IoT_LINK_1.0.0/iot_link/os/liteos/base/misc\los_misc.c ****         }
  69:C:/Users/SAM.KINUTHIA/.icode/sdk/IoT_LINK_1.0.0/iot_link/os/liteos/base/misc\los_misc.c ****     }
  70:C:/Users/SAM.KINUTHIA/.icode/sdk/IoT_LINK_1.0.0/iot_link/os/liteos/base/misc\los_misc.c **** 
  71:C:/Users/SAM.KINUTHIA/.icode/sdk/IoT_LINK_1.0.0/iot_link/os/liteos/base/misc\los_misc.c ****     (VOID)LOS_TaskDelay(uwInterval);
 141              		.loc 1 71 0
 142 0034 F868     		ldr	r0, [r7, #12]
 143 0036 FFF7FEFF 		bl	LOS_TaskDelay
 144 003a 00E0     		b	.L4
 145              	.L9:
  55:C:/Users/SAM.KINUTHIA/.icode/sdk/IoT_LINK_1.0.0/iot_link/os/liteos/base/misc\los_misc.c ****     }
 146              		.loc 1 55 0
 147 003c 00BF     		nop
 148              	.L4:
  72:C:/Users/SAM.KINUTHIA/.icode/sdk/IoT_LINK_1.0.0/iot_link/os/liteos/base/misc\los_misc.c **** }
 149              		.loc 1 72 0
 150 003e 1037     		adds	r7, r7, #16
 151              	.LCFI9:
 152              		.cfi_def_cfa_offset 8
 153 0040 BD46     		mov	sp, r7
 154              	.LCFI10:
 155              		.cfi_def_cfa_register 13
 156              		@ sp needed
 157 0042 80BD     		pop	{r7, pc}
 158              		.cfi_endproc
ARM GAS  C:\Users\SAM~1.KIN\AppData\Local\Temp\ccvQYdW7.s 			page 5


 159              	.LFE290:
 161              		.text
 162              	.Letext0:
 163              		.file 2 "c:\\users\\sam.kinuthia\\opensourcetools\\gnu tools arm embedded\\7 2018-q2-update\\arm-n
 164              		.file 3 "c:\\users\\sam.kinuthia\\opensourcetools\\gnu tools arm embedded\\7 2018-q2-update\\arm-n
 165              		.file 4 "c:\\users\\sam.kinuthia\\opensourcetools\\gnu tools arm embedded\\7 2018-q2-update\\arm-n
 166              		.file 5 "c:\\users\\sam.kinuthia\\opensourcetools\\gnu tools arm embedded\\7 2018-q2-update\\lib\\
 167              		.file 6 "c:\\users\\sam.kinuthia\\opensourcetools\\gnu tools arm embedded\\7 2018-q2-update\\arm-n
 168              		.file 7 "C:/Users/SAM.KINUTHIA/.icode/sdk/IoT_LINK_1.0.0/iot_link/os/liteos/include/los_typedef.h"
 169              		.file 8 "c:\\users\\sam.kinuthia\\opensourcetools\\gnu tools arm embedded\\7 2018-q2-update\\arm-n
 170              		.file 9 "C:/Users/SAM.KINUTHIA/.icode/sdk/IoT_LINK_1.0.0/iot_link/os/liteos/arch/arm/common/cmsis/
 171              		.file 10 "C:/Users/SAM.KINUTHIA/Desktop/HCIAPROJECT/demofile2/targets/STM32L431_BearPi/Inc/system_
 172              		.file 11 "C:/Users/SAM.KINUTHIA/.icode/sdk/IoT_LINK_1.0.0/iot_link/os/liteos/arch/arm/arm-m/includ
 173              		.file 12 "C:/Users/SAM.KINUTHIA/.icode/sdk/IoT_LINK_1.0.0/iot_link/os/liteos/include/los_list.h"
 174              		.file 13 "C:/Users/SAM.KINUTHIA/.icode/sdk/IoT_LINK_1.0.0/iot_link/os/liteos/include/los_event.h"
 175              		.file 14 "C:/Users/SAM.KINUTHIA/.icode/sdk/IoT_LINK_1.0.0/iot_link/os/liteos/include/los_config.h"
 176              		.file 15 "C:/Users/SAM.KINUTHIA/.icode/sdk/IoT_LINK_1.0.0/iot_link/os/liteos/include/los_err.h"
 177              		.file 16 "C:/Users/SAM.KINUTHIA/.icode/sdk/IoT_LINK_1.0.0/iot_link/os/liteos/include/los_tick.h"
 178              		.file 17 "C:/Users/SAM.KINUTHIA/.icode/sdk/IoT_LINK_1.0.0/iot_link/os/liteos/include/los_task.h"
 179              		.file 18 "C:/Users/SAM.KINUTHIA/.icode/sdk/IoT_LINK_1.0.0/iot_link/os/liteos/base/include/los_task
ARM GAS  C:\Users\SAM~1.KIN\AppData\Local\Temp\ccvQYdW7.s 			page 6

