ARM GAS  C:\Users\SAM~1.KIN\AppData\Local\Temp\ccbOvCcl.s 			page 1


   1              		.cpu cortex-m4
   2              		.eabi_attribute 27, 1
   3              		.eabi_attribute 28, 1
   4              		.eabi_attribute 20, 1
   5              		.eabi_attribute 21, 1
   6              		.eabi_attribute 23, 3
   7              		.eabi_attribute 24, 1
   8              		.eabi_attribute 25, 1
   9              		.eabi_attribute 26, 1
  10              		.eabi_attribute 30, 6
  11              		.eabi_attribute 34, 1
  12              		.eabi_attribute 18, 4
  13              		.file	"stm32l4xx_hal_uart_ex.c"
  14              		.text
  15              	.Ltext0:
  16              		.cfi_sections	.debug_frame
  17              		.section	.text.HAL_RS485Ex_Init,"ax",%progbits
  18              		.align	1
  19              		.global	HAL_RS485Ex_Init
  20              		.syntax unified
  21              		.thumb
  22              		.thumb_func
  23              		.fpu fpv4-sp-d16
  25              	HAL_RS485Ex_Init:
  26              	.LFB287:
  27              		.file 1 "C:/Users/SAM.KINUTHIA/.icode/sdk/IoT_LINK_1.0.0/drivers/third_party/ST/STM32L4xx_HAL_Driv
   1:C:/Users/SAM.KINUTHIA/.icode/sdk/IoT_LINK_1.0.0/drivers/third_party/ST/STM32L4xx_HAL_Driver/Src\stm32l4xx_hal_uart_ex.c **** /**
   2:C:/Users/SAM.KINUTHIA/.icode/sdk/IoT_LINK_1.0.0/drivers/third_party/ST/STM32L4xx_HAL_Driver/Src\stm32l4xx_hal_uart_ex.c ****   ******************************************************************************
   3:C:/Users/SAM.KINUTHIA/.icode/sdk/IoT_LINK_1.0.0/drivers/third_party/ST/STM32L4xx_HAL_Driver/Src\stm32l4xx_hal_uart_ex.c ****   * @file    stm32l4xx_hal_uart_ex.c
   4:C:/Users/SAM.KINUTHIA/.icode/sdk/IoT_LINK_1.0.0/drivers/third_party/ST/STM32L4xx_HAL_Driver/Src\stm32l4xx_hal_uart_ex.c ****   * @author  MCD Application Team
   5:C:/Users/SAM.KINUTHIA/.icode/sdk/IoT_LINK_1.0.0/drivers/third_party/ST/STM32L4xx_HAL_Driver/Src\stm32l4xx_hal_uart_ex.c ****   * @brief   Extended UART HAL module driver.
   6:C:/Users/SAM.KINUTHIA/.icode/sdk/IoT_LINK_1.0.0/drivers/third_party/ST/STM32L4xx_HAL_Driver/Src\stm32l4xx_hal_uart_ex.c ****   *          This file provides firmware functions to manage the following extended
   7:C:/Users/SAM.KINUTHIA/.icode/sdk/IoT_LINK_1.0.0/drivers/third_party/ST/STM32L4xx_HAL_Driver/Src\stm32l4xx_hal_uart_ex.c ****   *          functionalities of the Universal Asynchronous Receiver Transmitter Peripheral (UART).
   8:C:/Users/SAM.KINUTHIA/.icode/sdk/IoT_LINK_1.0.0/drivers/third_party/ST/STM32L4xx_HAL_Driver/Src\stm32l4xx_hal_uart_ex.c ****   *           + Initialization and de-initialization functions
   9:C:/Users/SAM.KINUTHIA/.icode/sdk/IoT_LINK_1.0.0/drivers/third_party/ST/STM32L4xx_HAL_Driver/Src\stm32l4xx_hal_uart_ex.c ****   *           + Peripheral Control functions
  10:C:/Users/SAM.KINUTHIA/.icode/sdk/IoT_LINK_1.0.0/drivers/third_party/ST/STM32L4xx_HAL_Driver/Src\stm32l4xx_hal_uart_ex.c ****   *
  11:C:/Users/SAM.KINUTHIA/.icode/sdk/IoT_LINK_1.0.0/drivers/third_party/ST/STM32L4xx_HAL_Driver/Src\stm32l4xx_hal_uart_ex.c ****   *
  12:C:/Users/SAM.KINUTHIA/.icode/sdk/IoT_LINK_1.0.0/drivers/third_party/ST/STM32L4xx_HAL_Driver/Src\stm32l4xx_hal_uart_ex.c ****   @verbatim
  13:C:/Users/SAM.KINUTHIA/.icode/sdk/IoT_LINK_1.0.0/drivers/third_party/ST/STM32L4xx_HAL_Driver/Src\stm32l4xx_hal_uart_ex.c ****   ==============================================================================
  14:C:/Users/SAM.KINUTHIA/.icode/sdk/IoT_LINK_1.0.0/drivers/third_party/ST/STM32L4xx_HAL_Driver/Src\stm32l4xx_hal_uart_ex.c ****                ##### UART peripheral extended features  #####
  15:C:/Users/SAM.KINUTHIA/.icode/sdk/IoT_LINK_1.0.0/drivers/third_party/ST/STM32L4xx_HAL_Driver/Src\stm32l4xx_hal_uart_ex.c ****   ==============================================================================
  16:C:/Users/SAM.KINUTHIA/.icode/sdk/IoT_LINK_1.0.0/drivers/third_party/ST/STM32L4xx_HAL_Driver/Src\stm32l4xx_hal_uart_ex.c **** 
  17:C:/Users/SAM.KINUTHIA/.icode/sdk/IoT_LINK_1.0.0/drivers/third_party/ST/STM32L4xx_HAL_Driver/Src\stm32l4xx_hal_uart_ex.c ****     (#) Declare a UART_HandleTypeDef handle structure.
  18:C:/Users/SAM.KINUTHIA/.icode/sdk/IoT_LINK_1.0.0/drivers/third_party/ST/STM32L4xx_HAL_Driver/Src\stm32l4xx_hal_uart_ex.c **** 
  19:C:/Users/SAM.KINUTHIA/.icode/sdk/IoT_LINK_1.0.0/drivers/third_party/ST/STM32L4xx_HAL_Driver/Src\stm32l4xx_hal_uart_ex.c ****     (#) For the UART RS485 Driver Enable mode, initialize the UART registers
  20:C:/Users/SAM.KINUTHIA/.icode/sdk/IoT_LINK_1.0.0/drivers/third_party/ST/STM32L4xx_HAL_Driver/Src\stm32l4xx_hal_uart_ex.c ****         by calling the HAL_RS485Ex_Init() API.
  21:C:/Users/SAM.KINUTHIA/.icode/sdk/IoT_LINK_1.0.0/drivers/third_party/ST/STM32L4xx_HAL_Driver/Src\stm32l4xx_hal_uart_ex.c **** 
  22:C:/Users/SAM.KINUTHIA/.icode/sdk/IoT_LINK_1.0.0/drivers/third_party/ST/STM32L4xx_HAL_Driver/Src\stm32l4xx_hal_uart_ex.c ****     (#) FIFO mode enabling/disabling and RX/TX FIFO threshold programming.
  23:C:/Users/SAM.KINUTHIA/.icode/sdk/IoT_LINK_1.0.0/drivers/third_party/ST/STM32L4xx_HAL_Driver/Src\stm32l4xx_hal_uart_ex.c **** 
  24:C:/Users/SAM.KINUTHIA/.icode/sdk/IoT_LINK_1.0.0/drivers/third_party/ST/STM32L4xx_HAL_Driver/Src\stm32l4xx_hal_uart_ex.c ****         -@- When USART operates in FIFO mode, FIFO mode must be enabled prior 
  25:C:/Users/SAM.KINUTHIA/.icode/sdk/IoT_LINK_1.0.0/drivers/third_party/ST/STM32L4xx_HAL_Driver/Src\stm32l4xx_hal_uart_ex.c ****             starting RX/TX transfers. Also RX/TX FIFO thresholds must be 
  26:C:/Users/SAM.KINUTHIA/.icode/sdk/IoT_LINK_1.0.0/drivers/third_party/ST/STM32L4xx_HAL_Driver/Src\stm32l4xx_hal_uart_ex.c ****             configured prior starting RX/TX transfers.
  27:C:/Users/SAM.KINUTHIA/.icode/sdk/IoT_LINK_1.0.0/drivers/third_party/ST/STM32L4xx_HAL_Driver/Src\stm32l4xx_hal_uart_ex.c **** 
  28:C:/Users/SAM.KINUTHIA/.icode/sdk/IoT_LINK_1.0.0/drivers/third_party/ST/STM32L4xx_HAL_Driver/Src\stm32l4xx_hal_uart_ex.c ****     (#) Slave mode enabling/disabling and NSS pin configuration.
  29:C:/Users/SAM.KINUTHIA/.icode/sdk/IoT_LINK_1.0.0/drivers/third_party/ST/STM32L4xx_HAL_Driver/Src\stm32l4xx_hal_uart_ex.c **** 
  30:C:/Users/SAM.KINUTHIA/.icode/sdk/IoT_LINK_1.0.0/drivers/third_party/ST/STM32L4xx_HAL_Driver/Src\stm32l4xx_hal_uart_ex.c ****         -@- When USART operates in Slave mode, Slave mode must be enabled prior 
  31:C:/Users/SAM.KINUTHIA/.icode/sdk/IoT_LINK_1.0.0/drivers/third_party/ST/STM32L4xx_HAL_Driver/Src\stm32l4xx_hal_uart_ex.c ****             starting RX/TX transfers.
ARM GAS  C:\Users\SAM~1.KIN\AppData\Local\Temp\ccbOvCcl.s 			page 2


  32:C:/Users/SAM.KINUTHIA/.icode/sdk/IoT_LINK_1.0.0/drivers/third_party/ST/STM32L4xx_HAL_Driver/Src\stm32l4xx_hal_uart_ex.c **** 
  33:C:/Users/SAM.KINUTHIA/.icode/sdk/IoT_LINK_1.0.0/drivers/third_party/ST/STM32L4xx_HAL_Driver/Src\stm32l4xx_hal_uart_ex.c ****   @endverbatim
  34:C:/Users/SAM.KINUTHIA/.icode/sdk/IoT_LINK_1.0.0/drivers/third_party/ST/STM32L4xx_HAL_Driver/Src\stm32l4xx_hal_uart_ex.c ****   ******************************************************************************
  35:C:/Users/SAM.KINUTHIA/.icode/sdk/IoT_LINK_1.0.0/drivers/third_party/ST/STM32L4xx_HAL_Driver/Src\stm32l4xx_hal_uart_ex.c ****   * @attention
  36:C:/Users/SAM.KINUTHIA/.icode/sdk/IoT_LINK_1.0.0/drivers/third_party/ST/STM32L4xx_HAL_Driver/Src\stm32l4xx_hal_uart_ex.c ****   *
  37:C:/Users/SAM.KINUTHIA/.icode/sdk/IoT_LINK_1.0.0/drivers/third_party/ST/STM32L4xx_HAL_Driver/Src\stm32l4xx_hal_uart_ex.c ****   * <h2><center>&copy; COPYRIGHT(c) 2017 STMicroelectronics</center></h2>
  38:C:/Users/SAM.KINUTHIA/.icode/sdk/IoT_LINK_1.0.0/drivers/third_party/ST/STM32L4xx_HAL_Driver/Src\stm32l4xx_hal_uart_ex.c ****   *
  39:C:/Users/SAM.KINUTHIA/.icode/sdk/IoT_LINK_1.0.0/drivers/third_party/ST/STM32L4xx_HAL_Driver/Src\stm32l4xx_hal_uart_ex.c ****   * Redistribution and use in source and binary forms, with or without modification,
  40:C:/Users/SAM.KINUTHIA/.icode/sdk/IoT_LINK_1.0.0/drivers/third_party/ST/STM32L4xx_HAL_Driver/Src\stm32l4xx_hal_uart_ex.c ****   * are permitted provided that the following conditions are met:
  41:C:/Users/SAM.KINUTHIA/.icode/sdk/IoT_LINK_1.0.0/drivers/third_party/ST/STM32L4xx_HAL_Driver/Src\stm32l4xx_hal_uart_ex.c ****   *   1. Redistributions of source code must retain the above copyright notice,
  42:C:/Users/SAM.KINUTHIA/.icode/sdk/IoT_LINK_1.0.0/drivers/third_party/ST/STM32L4xx_HAL_Driver/Src\stm32l4xx_hal_uart_ex.c ****   *      this list of conditions and the following disclaimer.
  43:C:/Users/SAM.KINUTHIA/.icode/sdk/IoT_LINK_1.0.0/drivers/third_party/ST/STM32L4xx_HAL_Driver/Src\stm32l4xx_hal_uart_ex.c ****   *   2. Redistributions in binary form must reproduce the above copyright notice,
  44:C:/Users/SAM.KINUTHIA/.icode/sdk/IoT_LINK_1.0.0/drivers/third_party/ST/STM32L4xx_HAL_Driver/Src\stm32l4xx_hal_uart_ex.c ****   *      this list of conditions and the following disclaimer in the documentation
  45:C:/Users/SAM.KINUTHIA/.icode/sdk/IoT_LINK_1.0.0/drivers/third_party/ST/STM32L4xx_HAL_Driver/Src\stm32l4xx_hal_uart_ex.c ****   *      and/or other materials provided with the distribution.
  46:C:/Users/SAM.KINUTHIA/.icode/sdk/IoT_LINK_1.0.0/drivers/third_party/ST/STM32L4xx_HAL_Driver/Src\stm32l4xx_hal_uart_ex.c ****   *   3. Neither the name of STMicroelectronics nor the names of its contributors
  47:C:/Users/SAM.KINUTHIA/.icode/sdk/IoT_LINK_1.0.0/drivers/third_party/ST/STM32L4xx_HAL_Driver/Src\stm32l4xx_hal_uart_ex.c ****   *      may be used to endorse or promote products derived from this software
  48:C:/Users/SAM.KINUTHIA/.icode/sdk/IoT_LINK_1.0.0/drivers/third_party/ST/STM32L4xx_HAL_Driver/Src\stm32l4xx_hal_uart_ex.c ****   *      without specific prior written permission.
  49:C:/Users/SAM.KINUTHIA/.icode/sdk/IoT_LINK_1.0.0/drivers/third_party/ST/STM32L4xx_HAL_Driver/Src\stm32l4xx_hal_uart_ex.c ****   *
  50:C:/Users/SAM.KINUTHIA/.icode/sdk/IoT_LINK_1.0.0/drivers/third_party/ST/STM32L4xx_HAL_Driver/Src\stm32l4xx_hal_uart_ex.c ****   * THIS SOFTWARE IS PROVIDED BY THE COPYRIGHT HOLDERS AND CONTRIBUTORS "AS IS"
  51:C:/Users/SAM.KINUTHIA/.icode/sdk/IoT_LINK_1.0.0/drivers/third_party/ST/STM32L4xx_HAL_Driver/Src\stm32l4xx_hal_uart_ex.c ****   * AND ANY EXPRESS OR IMPLIED WARRANTIES, INCLUDING, BUT NOT LIMITED TO, THE
  52:C:/Users/SAM.KINUTHIA/.icode/sdk/IoT_LINK_1.0.0/drivers/third_party/ST/STM32L4xx_HAL_Driver/Src\stm32l4xx_hal_uart_ex.c ****   * IMPLIED WARRANTIES OF MERCHANTABILITY AND FITNESS FOR A PARTICULAR PURPOSE ARE
  53:C:/Users/SAM.KINUTHIA/.icode/sdk/IoT_LINK_1.0.0/drivers/third_party/ST/STM32L4xx_HAL_Driver/Src\stm32l4xx_hal_uart_ex.c ****   * DISCLAIMED. IN NO EVENT SHALL THE COPYRIGHT HOLDER OR CONTRIBUTORS BE LIABLE
  54:C:/Users/SAM.KINUTHIA/.icode/sdk/IoT_LINK_1.0.0/drivers/third_party/ST/STM32L4xx_HAL_Driver/Src\stm32l4xx_hal_uart_ex.c ****   * FOR ANY DIRECT, INDIRECT, INCIDENTAL, SPECIAL, EXEMPLARY, OR CONSEQUENTIAL
  55:C:/Users/SAM.KINUTHIA/.icode/sdk/IoT_LINK_1.0.0/drivers/third_party/ST/STM32L4xx_HAL_Driver/Src\stm32l4xx_hal_uart_ex.c ****   * DAMAGES (INCLUDING, BUT NOT LIMITED TO, PROCUREMENT OF SUBSTITUTE GOODS OR
  56:C:/Users/SAM.KINUTHIA/.icode/sdk/IoT_LINK_1.0.0/drivers/third_party/ST/STM32L4xx_HAL_Driver/Src\stm32l4xx_hal_uart_ex.c ****   * SERVICES; LOSS OF USE, DATA, OR PROFITS; OR BUSINESS INTERRUPTION) HOWEVER
  57:C:/Users/SAM.KINUTHIA/.icode/sdk/IoT_LINK_1.0.0/drivers/third_party/ST/STM32L4xx_HAL_Driver/Src\stm32l4xx_hal_uart_ex.c ****   * CAUSED AND ON ANY THEORY OF LIABILITY, WHETHER IN CONTRACT, STRICT LIABILITY,
  58:C:/Users/SAM.KINUTHIA/.icode/sdk/IoT_LINK_1.0.0/drivers/third_party/ST/STM32L4xx_HAL_Driver/Src\stm32l4xx_hal_uart_ex.c ****   * OR TORT (INCLUDING NEGLIGENCE OR OTHERWISE) ARISING IN ANY WAY OUT OF THE USE
  59:C:/Users/SAM.KINUTHIA/.icode/sdk/IoT_LINK_1.0.0/drivers/third_party/ST/STM32L4xx_HAL_Driver/Src\stm32l4xx_hal_uart_ex.c ****   * OF THIS SOFTWARE, EVEN IF ADVISED OF THE POSSIBILITY OF SUCH DAMAGE.
  60:C:/Users/SAM.KINUTHIA/.icode/sdk/IoT_LINK_1.0.0/drivers/third_party/ST/STM32L4xx_HAL_Driver/Src\stm32l4xx_hal_uart_ex.c ****   *
  61:C:/Users/SAM.KINUTHIA/.icode/sdk/IoT_LINK_1.0.0/drivers/third_party/ST/STM32L4xx_HAL_Driver/Src\stm32l4xx_hal_uart_ex.c ****   ******************************************************************************
  62:C:/Users/SAM.KINUTHIA/.icode/sdk/IoT_LINK_1.0.0/drivers/third_party/ST/STM32L4xx_HAL_Driver/Src\stm32l4xx_hal_uart_ex.c ****   */
  63:C:/Users/SAM.KINUTHIA/.icode/sdk/IoT_LINK_1.0.0/drivers/third_party/ST/STM32L4xx_HAL_Driver/Src\stm32l4xx_hal_uart_ex.c **** 
  64:C:/Users/SAM.KINUTHIA/.icode/sdk/IoT_LINK_1.0.0/drivers/third_party/ST/STM32L4xx_HAL_Driver/Src\stm32l4xx_hal_uart_ex.c **** /* Includes ------------------------------------------------------------------*/
  65:C:/Users/SAM.KINUTHIA/.icode/sdk/IoT_LINK_1.0.0/drivers/third_party/ST/STM32L4xx_HAL_Driver/Src\stm32l4xx_hal_uart_ex.c **** #include "stm32l4xx_hal.h"
  66:C:/Users/SAM.KINUTHIA/.icode/sdk/IoT_LINK_1.0.0/drivers/third_party/ST/STM32L4xx_HAL_Driver/Src\stm32l4xx_hal_uart_ex.c **** 
  67:C:/Users/SAM.KINUTHIA/.icode/sdk/IoT_LINK_1.0.0/drivers/third_party/ST/STM32L4xx_HAL_Driver/Src\stm32l4xx_hal_uart_ex.c **** /** @addtogroup STM32L4xx_HAL_Driver
  68:C:/Users/SAM.KINUTHIA/.icode/sdk/IoT_LINK_1.0.0/drivers/third_party/ST/STM32L4xx_HAL_Driver/Src\stm32l4xx_hal_uart_ex.c ****   * @{
  69:C:/Users/SAM.KINUTHIA/.icode/sdk/IoT_LINK_1.0.0/drivers/third_party/ST/STM32L4xx_HAL_Driver/Src\stm32l4xx_hal_uart_ex.c ****   */
  70:C:/Users/SAM.KINUTHIA/.icode/sdk/IoT_LINK_1.0.0/drivers/third_party/ST/STM32L4xx_HAL_Driver/Src\stm32l4xx_hal_uart_ex.c **** 
  71:C:/Users/SAM.KINUTHIA/.icode/sdk/IoT_LINK_1.0.0/drivers/third_party/ST/STM32L4xx_HAL_Driver/Src\stm32l4xx_hal_uart_ex.c **** /** @defgroup UARTEx UARTEx
  72:C:/Users/SAM.KINUTHIA/.icode/sdk/IoT_LINK_1.0.0/drivers/third_party/ST/STM32L4xx_HAL_Driver/Src\stm32l4xx_hal_uart_ex.c ****   * @brief UART Extended HAL module driver
  73:C:/Users/SAM.KINUTHIA/.icode/sdk/IoT_LINK_1.0.0/drivers/third_party/ST/STM32L4xx_HAL_Driver/Src\stm32l4xx_hal_uart_ex.c ****   * @{
  74:C:/Users/SAM.KINUTHIA/.icode/sdk/IoT_LINK_1.0.0/drivers/third_party/ST/STM32L4xx_HAL_Driver/Src\stm32l4xx_hal_uart_ex.c ****   */
  75:C:/Users/SAM.KINUTHIA/.icode/sdk/IoT_LINK_1.0.0/drivers/third_party/ST/STM32L4xx_HAL_Driver/Src\stm32l4xx_hal_uart_ex.c **** 
  76:C:/Users/SAM.KINUTHIA/.icode/sdk/IoT_LINK_1.0.0/drivers/third_party/ST/STM32L4xx_HAL_Driver/Src\stm32l4xx_hal_uart_ex.c **** #ifdef HAL_UART_MODULE_ENABLED
  77:C:/Users/SAM.KINUTHIA/.icode/sdk/IoT_LINK_1.0.0/drivers/third_party/ST/STM32L4xx_HAL_Driver/Src\stm32l4xx_hal_uart_ex.c **** 
  78:C:/Users/SAM.KINUTHIA/.icode/sdk/IoT_LINK_1.0.0/drivers/third_party/ST/STM32L4xx_HAL_Driver/Src\stm32l4xx_hal_uart_ex.c **** /* Private typedef -----------------------------------------------------------*/
  79:C:/Users/SAM.KINUTHIA/.icode/sdk/IoT_LINK_1.0.0/drivers/third_party/ST/STM32L4xx_HAL_Driver/Src\stm32l4xx_hal_uart_ex.c **** /* Private define ------------------------------------------------------------*/
  80:C:/Users/SAM.KINUTHIA/.icode/sdk/IoT_LINK_1.0.0/drivers/third_party/ST/STM32L4xx_HAL_Driver/Src\stm32l4xx_hal_uart_ex.c **** /* Private macros ------------------------------------------------------------*/
  81:C:/Users/SAM.KINUTHIA/.icode/sdk/IoT_LINK_1.0.0/drivers/third_party/ST/STM32L4xx_HAL_Driver/Src\stm32l4xx_hal_uart_ex.c **** /* Private variables ---------------------------------------------------------*/
  82:C:/Users/SAM.KINUTHIA/.icode/sdk/IoT_LINK_1.0.0/drivers/third_party/ST/STM32L4xx_HAL_Driver/Src\stm32l4xx_hal_uart_ex.c **** /* Private function prototypes -----------------------------------------------*/
  83:C:/Users/SAM.KINUTHIA/.icode/sdk/IoT_LINK_1.0.0/drivers/third_party/ST/STM32L4xx_HAL_Driver/Src\stm32l4xx_hal_uart_ex.c **** /** @defgroup UARTEx_Private_Functions UARTEx Private Functions
  84:C:/Users/SAM.KINUTHIA/.icode/sdk/IoT_LINK_1.0.0/drivers/third_party/ST/STM32L4xx_HAL_Driver/Src\stm32l4xx_hal_uart_ex.c ****   * @{
  85:C:/Users/SAM.KINUTHIA/.icode/sdk/IoT_LINK_1.0.0/drivers/third_party/ST/STM32L4xx_HAL_Driver/Src\stm32l4xx_hal_uart_ex.c ****   */
  86:C:/Users/SAM.KINUTHIA/.icode/sdk/IoT_LINK_1.0.0/drivers/third_party/ST/STM32L4xx_HAL_Driver/Src\stm32l4xx_hal_uart_ex.c **** static void UARTEx_Wakeup_AddressConfig(UART_HandleTypeDef *huart, UART_WakeUpTypeDef WakeUpSelecti
  87:C:/Users/SAM.KINUTHIA/.icode/sdk/IoT_LINK_1.0.0/drivers/third_party/ST/STM32L4xx_HAL_Driver/Src\stm32l4xx_hal_uart_ex.c **** #if defined(USART_CR1_FIFOEN)
  88:C:/Users/SAM.KINUTHIA/.icode/sdk/IoT_LINK_1.0.0/drivers/third_party/ST/STM32L4xx_HAL_Driver/Src\stm32l4xx_hal_uart_ex.c **** static void UARTEx_SetNbDataToProcess(UART_HandleTypeDef *huart);
ARM GAS  C:\Users\SAM~1.KIN\AppData\Local\Temp\ccbOvCcl.s 			page 3


  89:C:/Users/SAM.KINUTHIA/.icode/sdk/IoT_LINK_1.0.0/drivers/third_party/ST/STM32L4xx_HAL_Driver/Src\stm32l4xx_hal_uart_ex.c **** #endif
  90:C:/Users/SAM.KINUTHIA/.icode/sdk/IoT_LINK_1.0.0/drivers/third_party/ST/STM32L4xx_HAL_Driver/Src\stm32l4xx_hal_uart_ex.c **** /**
  91:C:/Users/SAM.KINUTHIA/.icode/sdk/IoT_LINK_1.0.0/drivers/third_party/ST/STM32L4xx_HAL_Driver/Src\stm32l4xx_hal_uart_ex.c ****   * @}
  92:C:/Users/SAM.KINUTHIA/.icode/sdk/IoT_LINK_1.0.0/drivers/third_party/ST/STM32L4xx_HAL_Driver/Src\stm32l4xx_hal_uart_ex.c ****   */
  93:C:/Users/SAM.KINUTHIA/.icode/sdk/IoT_LINK_1.0.0/drivers/third_party/ST/STM32L4xx_HAL_Driver/Src\stm32l4xx_hal_uart_ex.c **** 
  94:C:/Users/SAM.KINUTHIA/.icode/sdk/IoT_LINK_1.0.0/drivers/third_party/ST/STM32L4xx_HAL_Driver/Src\stm32l4xx_hal_uart_ex.c **** /* Exported functions --------------------------------------------------------*/
  95:C:/Users/SAM.KINUTHIA/.icode/sdk/IoT_LINK_1.0.0/drivers/third_party/ST/STM32L4xx_HAL_Driver/Src\stm32l4xx_hal_uart_ex.c **** 
  96:C:/Users/SAM.KINUTHIA/.icode/sdk/IoT_LINK_1.0.0/drivers/third_party/ST/STM32L4xx_HAL_Driver/Src\stm32l4xx_hal_uart_ex.c **** /** @defgroup UARTEx_Exported_Functions  UARTEx Exported Functions
  97:C:/Users/SAM.KINUTHIA/.icode/sdk/IoT_LINK_1.0.0/drivers/third_party/ST/STM32L4xx_HAL_Driver/Src\stm32l4xx_hal_uart_ex.c ****   * @{
  98:C:/Users/SAM.KINUTHIA/.icode/sdk/IoT_LINK_1.0.0/drivers/third_party/ST/STM32L4xx_HAL_Driver/Src\stm32l4xx_hal_uart_ex.c ****   */
  99:C:/Users/SAM.KINUTHIA/.icode/sdk/IoT_LINK_1.0.0/drivers/third_party/ST/STM32L4xx_HAL_Driver/Src\stm32l4xx_hal_uart_ex.c **** 
 100:C:/Users/SAM.KINUTHIA/.icode/sdk/IoT_LINK_1.0.0/drivers/third_party/ST/STM32L4xx_HAL_Driver/Src\stm32l4xx_hal_uart_ex.c **** /** @defgroup UARTEx_Exported_Functions_Group1 Initialization and de-initialization functions
 101:C:/Users/SAM.KINUTHIA/.icode/sdk/IoT_LINK_1.0.0/drivers/third_party/ST/STM32L4xx_HAL_Driver/Src\stm32l4xx_hal_uart_ex.c ****   * @brief    Extended Initialization and Configuration Functions
 102:C:/Users/SAM.KINUTHIA/.icode/sdk/IoT_LINK_1.0.0/drivers/third_party/ST/STM32L4xx_HAL_Driver/Src\stm32l4xx_hal_uart_ex.c ****   *
 103:C:/Users/SAM.KINUTHIA/.icode/sdk/IoT_LINK_1.0.0/drivers/third_party/ST/STM32L4xx_HAL_Driver/Src\stm32l4xx_hal_uart_ex.c **** @verbatim
 104:C:/Users/SAM.KINUTHIA/.icode/sdk/IoT_LINK_1.0.0/drivers/third_party/ST/STM32L4xx_HAL_Driver/Src\stm32l4xx_hal_uart_ex.c **** ===============================================================================
 105:C:/Users/SAM.KINUTHIA/.icode/sdk/IoT_LINK_1.0.0/drivers/third_party/ST/STM32L4xx_HAL_Driver/Src\stm32l4xx_hal_uart_ex.c ****             ##### Initialization and Configuration functions #####
 106:C:/Users/SAM.KINUTHIA/.icode/sdk/IoT_LINK_1.0.0/drivers/third_party/ST/STM32L4xx_HAL_Driver/Src\stm32l4xx_hal_uart_ex.c ****  ===============================================================================
 107:C:/Users/SAM.KINUTHIA/.icode/sdk/IoT_LINK_1.0.0/drivers/third_party/ST/STM32L4xx_HAL_Driver/Src\stm32l4xx_hal_uart_ex.c ****     [..]
 108:C:/Users/SAM.KINUTHIA/.icode/sdk/IoT_LINK_1.0.0/drivers/third_party/ST/STM32L4xx_HAL_Driver/Src\stm32l4xx_hal_uart_ex.c ****     This subsection provides a set of functions allowing to initialize the USARTx or the UARTy
 109:C:/Users/SAM.KINUTHIA/.icode/sdk/IoT_LINK_1.0.0/drivers/third_party/ST/STM32L4xx_HAL_Driver/Src\stm32l4xx_hal_uart_ex.c ****     in asynchronous mode.
 110:C:/Users/SAM.KINUTHIA/.icode/sdk/IoT_LINK_1.0.0/drivers/third_party/ST/STM32L4xx_HAL_Driver/Src\stm32l4xx_hal_uart_ex.c ****       (+) For the asynchronous mode the parameters below can be configured:
 111:C:/Users/SAM.KINUTHIA/.icode/sdk/IoT_LINK_1.0.0/drivers/third_party/ST/STM32L4xx_HAL_Driver/Src\stm32l4xx_hal_uart_ex.c ****         (++) Baud Rate
 112:C:/Users/SAM.KINUTHIA/.icode/sdk/IoT_LINK_1.0.0/drivers/third_party/ST/STM32L4xx_HAL_Driver/Src\stm32l4xx_hal_uart_ex.c ****         (++) Word Length
 113:C:/Users/SAM.KINUTHIA/.icode/sdk/IoT_LINK_1.0.0/drivers/third_party/ST/STM32L4xx_HAL_Driver/Src\stm32l4xx_hal_uart_ex.c ****         (++) Stop Bit
 114:C:/Users/SAM.KINUTHIA/.icode/sdk/IoT_LINK_1.0.0/drivers/third_party/ST/STM32L4xx_HAL_Driver/Src\stm32l4xx_hal_uart_ex.c ****         (++) Parity: If the parity is enabled, then the MSB bit of the data written
 115:C:/Users/SAM.KINUTHIA/.icode/sdk/IoT_LINK_1.0.0/drivers/third_party/ST/STM32L4xx_HAL_Driver/Src\stm32l4xx_hal_uart_ex.c ****              in the data register is transmitted but is changed by the parity bit.
 116:C:/Users/SAM.KINUTHIA/.icode/sdk/IoT_LINK_1.0.0/drivers/third_party/ST/STM32L4xx_HAL_Driver/Src\stm32l4xx_hal_uart_ex.c ****         (++) Hardware flow control
 117:C:/Users/SAM.KINUTHIA/.icode/sdk/IoT_LINK_1.0.0/drivers/third_party/ST/STM32L4xx_HAL_Driver/Src\stm32l4xx_hal_uart_ex.c ****         (++) Receiver/transmitter modes
 118:C:/Users/SAM.KINUTHIA/.icode/sdk/IoT_LINK_1.0.0/drivers/third_party/ST/STM32L4xx_HAL_Driver/Src\stm32l4xx_hal_uart_ex.c ****         (++) Over Sampling Method
 119:C:/Users/SAM.KINUTHIA/.icode/sdk/IoT_LINK_1.0.0/drivers/third_party/ST/STM32L4xx_HAL_Driver/Src\stm32l4xx_hal_uart_ex.c ****         (++) One-Bit Sampling Method
 120:C:/Users/SAM.KINUTHIA/.icode/sdk/IoT_LINK_1.0.0/drivers/third_party/ST/STM32L4xx_HAL_Driver/Src\stm32l4xx_hal_uart_ex.c ****       (+) For the asynchronous mode, the following advanced features can be configured as well:
 121:C:/Users/SAM.KINUTHIA/.icode/sdk/IoT_LINK_1.0.0/drivers/third_party/ST/STM32L4xx_HAL_Driver/Src\stm32l4xx_hal_uart_ex.c ****         (++) TX and/or RX pin level inversion
 122:C:/Users/SAM.KINUTHIA/.icode/sdk/IoT_LINK_1.0.0/drivers/third_party/ST/STM32L4xx_HAL_Driver/Src\stm32l4xx_hal_uart_ex.c ****         (++) data logical level inversion
 123:C:/Users/SAM.KINUTHIA/.icode/sdk/IoT_LINK_1.0.0/drivers/third_party/ST/STM32L4xx_HAL_Driver/Src\stm32l4xx_hal_uart_ex.c ****         (++) RX and TX pins swap
 124:C:/Users/SAM.KINUTHIA/.icode/sdk/IoT_LINK_1.0.0/drivers/third_party/ST/STM32L4xx_HAL_Driver/Src\stm32l4xx_hal_uart_ex.c ****         (++) RX overrun detection disabling
 125:C:/Users/SAM.KINUTHIA/.icode/sdk/IoT_LINK_1.0.0/drivers/third_party/ST/STM32L4xx_HAL_Driver/Src\stm32l4xx_hal_uart_ex.c ****         (++) DMA disabling on RX error
 126:C:/Users/SAM.KINUTHIA/.icode/sdk/IoT_LINK_1.0.0/drivers/third_party/ST/STM32L4xx_HAL_Driver/Src\stm32l4xx_hal_uart_ex.c ****         (++) MSB first on communication line
 127:C:/Users/SAM.KINUTHIA/.icode/sdk/IoT_LINK_1.0.0/drivers/third_party/ST/STM32L4xx_HAL_Driver/Src\stm32l4xx_hal_uart_ex.c ****         (++) auto Baud rate detection
 128:C:/Users/SAM.KINUTHIA/.icode/sdk/IoT_LINK_1.0.0/drivers/third_party/ST/STM32L4xx_HAL_Driver/Src\stm32l4xx_hal_uart_ex.c ****     [..]
 129:C:/Users/SAM.KINUTHIA/.icode/sdk/IoT_LINK_1.0.0/drivers/third_party/ST/STM32L4xx_HAL_Driver/Src\stm32l4xx_hal_uart_ex.c ****     The HAL_RS485Ex_Init() API follows the UART RS485 mode configuration
 130:C:/Users/SAM.KINUTHIA/.icode/sdk/IoT_LINK_1.0.0/drivers/third_party/ST/STM32L4xx_HAL_Driver/Src\stm32l4xx_hal_uart_ex.c ****      procedures (details for the procedures are available in reference manual).
 131:C:/Users/SAM.KINUTHIA/.icode/sdk/IoT_LINK_1.0.0/drivers/third_party/ST/STM32L4xx_HAL_Driver/Src\stm32l4xx_hal_uart_ex.c **** 
 132:C:/Users/SAM.KINUTHIA/.icode/sdk/IoT_LINK_1.0.0/drivers/third_party/ST/STM32L4xx_HAL_Driver/Src\stm32l4xx_hal_uart_ex.c **** @endverbatim
 133:C:/Users/SAM.KINUTHIA/.icode/sdk/IoT_LINK_1.0.0/drivers/third_party/ST/STM32L4xx_HAL_Driver/Src\stm32l4xx_hal_uart_ex.c **** 
 134:C:/Users/SAM.KINUTHIA/.icode/sdk/IoT_LINK_1.0.0/drivers/third_party/ST/STM32L4xx_HAL_Driver/Src\stm32l4xx_hal_uart_ex.c ****   Depending on the frame length defined by the M1 and M0 bits (7-bit, 
 135:C:/Users/SAM.KINUTHIA/.icode/sdk/IoT_LINK_1.0.0/drivers/third_party/ST/STM32L4xx_HAL_Driver/Src\stm32l4xx_hal_uart_ex.c ****   8-bit or 9-bit), the possible UART formats are listed in the 
 136:C:/Users/SAM.KINUTHIA/.icode/sdk/IoT_LINK_1.0.0/drivers/third_party/ST/STM32L4xx_HAL_Driver/Src\stm32l4xx_hal_uart_ex.c ****   following table.
 137:C:/Users/SAM.KINUTHIA/.icode/sdk/IoT_LINK_1.0.0/drivers/third_party/ST/STM32L4xx_HAL_Driver/Src\stm32l4xx_hal_uart_ex.c ****   
 138:C:/Users/SAM.KINUTHIA/.icode/sdk/IoT_LINK_1.0.0/drivers/third_party/ST/STM32L4xx_HAL_Driver/Src\stm32l4xx_hal_uart_ex.c ****     Table 1. UART frame format.
 139:C:/Users/SAM.KINUTHIA/.icode/sdk/IoT_LINK_1.0.0/drivers/third_party/ST/STM32L4xx_HAL_Driver/Src\stm32l4xx_hal_uart_ex.c ****     +-----------------------------------------------------------------------+
 140:C:/Users/SAM.KINUTHIA/.icode/sdk/IoT_LINK_1.0.0/drivers/third_party/ST/STM32L4xx_HAL_Driver/Src\stm32l4xx_hal_uart_ex.c ****     |  M1 bit |  M0 bit |  PCE bit  |             UART frame                |
 141:C:/Users/SAM.KINUTHIA/.icode/sdk/IoT_LINK_1.0.0/drivers/third_party/ST/STM32L4xx_HAL_Driver/Src\stm32l4xx_hal_uart_ex.c ****     |---------|---------|-----------|---------------------------------------|
 142:C:/Users/SAM.KINUTHIA/.icode/sdk/IoT_LINK_1.0.0/drivers/third_party/ST/STM32L4xx_HAL_Driver/Src\stm32l4xx_hal_uart_ex.c ****     |    0    |    0    |    0      |    | SB |    8 bit data   | STB |     |
 143:C:/Users/SAM.KINUTHIA/.icode/sdk/IoT_LINK_1.0.0/drivers/third_party/ST/STM32L4xx_HAL_Driver/Src\stm32l4xx_hal_uart_ex.c ****     |---------|---------|-----------|---------------------------------------|
 144:C:/Users/SAM.KINUTHIA/.icode/sdk/IoT_LINK_1.0.0/drivers/third_party/ST/STM32L4xx_HAL_Driver/Src\stm32l4xx_hal_uart_ex.c ****     |    0    |    0    |    1      |    | SB | 7 bit data | PB | STB |     |
 145:C:/Users/SAM.KINUTHIA/.icode/sdk/IoT_LINK_1.0.0/drivers/third_party/ST/STM32L4xx_HAL_Driver/Src\stm32l4xx_hal_uart_ex.c ****     |---------|---------|-----------|---------------------------------------|
ARM GAS  C:\Users\SAM~1.KIN\AppData\Local\Temp\ccbOvCcl.s 			page 4


 146:C:/Users/SAM.KINUTHIA/.icode/sdk/IoT_LINK_1.0.0/drivers/third_party/ST/STM32L4xx_HAL_Driver/Src\stm32l4xx_hal_uart_ex.c ****     |    0    |    1    |    0      |    | SB |    9 bit data   | STB |     |
 147:C:/Users/SAM.KINUTHIA/.icode/sdk/IoT_LINK_1.0.0/drivers/third_party/ST/STM32L4xx_HAL_Driver/Src\stm32l4xx_hal_uart_ex.c ****     |---------|---------|-----------|---------------------------------------|
 148:C:/Users/SAM.KINUTHIA/.icode/sdk/IoT_LINK_1.0.0/drivers/third_party/ST/STM32L4xx_HAL_Driver/Src\stm32l4xx_hal_uart_ex.c ****     |    0    |    1    |    1      |    | SB | 8 bit data | PB | STB |     |
 149:C:/Users/SAM.KINUTHIA/.icode/sdk/IoT_LINK_1.0.0/drivers/third_party/ST/STM32L4xx_HAL_Driver/Src\stm32l4xx_hal_uart_ex.c ****     |---------|---------|-----------|---------------------------------------|
 150:C:/Users/SAM.KINUTHIA/.icode/sdk/IoT_LINK_1.0.0/drivers/third_party/ST/STM32L4xx_HAL_Driver/Src\stm32l4xx_hal_uart_ex.c ****     |    1    |    0    |    0      |    | SB |    7 bit data   | STB |     |
 151:C:/Users/SAM.KINUTHIA/.icode/sdk/IoT_LINK_1.0.0/drivers/third_party/ST/STM32L4xx_HAL_Driver/Src\stm32l4xx_hal_uart_ex.c ****     |---------|---------|-----------|---------------------------------------|
 152:C:/Users/SAM.KINUTHIA/.icode/sdk/IoT_LINK_1.0.0/drivers/third_party/ST/STM32L4xx_HAL_Driver/Src\stm32l4xx_hal_uart_ex.c ****     |    1    |    0    |    1      |    | SB | 6 bit data | PB | STB |     |
 153:C:/Users/SAM.KINUTHIA/.icode/sdk/IoT_LINK_1.0.0/drivers/third_party/ST/STM32L4xx_HAL_Driver/Src\stm32l4xx_hal_uart_ex.c ****     +-----------------------------------------------------------------------+
 154:C:/Users/SAM.KINUTHIA/.icode/sdk/IoT_LINK_1.0.0/drivers/third_party/ST/STM32L4xx_HAL_Driver/Src\stm32l4xx_hal_uart_ex.c **** 
 155:C:/Users/SAM.KINUTHIA/.icode/sdk/IoT_LINK_1.0.0/drivers/third_party/ST/STM32L4xx_HAL_Driver/Src\stm32l4xx_hal_uart_ex.c ****   * @{
 156:C:/Users/SAM.KINUTHIA/.icode/sdk/IoT_LINK_1.0.0/drivers/third_party/ST/STM32L4xx_HAL_Driver/Src\stm32l4xx_hal_uart_ex.c ****   */
 157:C:/Users/SAM.KINUTHIA/.icode/sdk/IoT_LINK_1.0.0/drivers/third_party/ST/STM32L4xx_HAL_Driver/Src\stm32l4xx_hal_uart_ex.c **** 
 158:C:/Users/SAM.KINUTHIA/.icode/sdk/IoT_LINK_1.0.0/drivers/third_party/ST/STM32L4xx_HAL_Driver/Src\stm32l4xx_hal_uart_ex.c **** /**
 159:C:/Users/SAM.KINUTHIA/.icode/sdk/IoT_LINK_1.0.0/drivers/third_party/ST/STM32L4xx_HAL_Driver/Src\stm32l4xx_hal_uart_ex.c ****   * @brief Initialize the RS485 Driver enable feature according to the specified
 160:C:/Users/SAM.KINUTHIA/.icode/sdk/IoT_LINK_1.0.0/drivers/third_party/ST/STM32L4xx_HAL_Driver/Src\stm32l4xx_hal_uart_ex.c ****   *         parameters in the UART_InitTypeDef and creates the associated handle.
 161:C:/Users/SAM.KINUTHIA/.icode/sdk/IoT_LINK_1.0.0/drivers/third_party/ST/STM32L4xx_HAL_Driver/Src\stm32l4xx_hal_uart_ex.c ****   * @param huart            UART handle.
 162:C:/Users/SAM.KINUTHIA/.icode/sdk/IoT_LINK_1.0.0/drivers/third_party/ST/STM32L4xx_HAL_Driver/Src\stm32l4xx_hal_uart_ex.c ****   * @param Polarity         Select the driver enable polarity.
 163:C:/Users/SAM.KINUTHIA/.icode/sdk/IoT_LINK_1.0.0/drivers/third_party/ST/STM32L4xx_HAL_Driver/Src\stm32l4xx_hal_uart_ex.c ****   *          This parameter can be one of the following values:
 164:C:/Users/SAM.KINUTHIA/.icode/sdk/IoT_LINK_1.0.0/drivers/third_party/ST/STM32L4xx_HAL_Driver/Src\stm32l4xx_hal_uart_ex.c ****   *          @arg @ref UART_DE_POLARITY_HIGH DE signal is active high
 165:C:/Users/SAM.KINUTHIA/.icode/sdk/IoT_LINK_1.0.0/drivers/third_party/ST/STM32L4xx_HAL_Driver/Src\stm32l4xx_hal_uart_ex.c ****   *          @arg @ref UART_DE_POLARITY_LOW  DE signal is active low
 166:C:/Users/SAM.KINUTHIA/.icode/sdk/IoT_LINK_1.0.0/drivers/third_party/ST/STM32L4xx_HAL_Driver/Src\stm32l4xx_hal_uart_ex.c ****   * @param AssertionTime    Driver Enable assertion time:
 167:C:/Users/SAM.KINUTHIA/.icode/sdk/IoT_LINK_1.0.0/drivers/third_party/ST/STM32L4xx_HAL_Driver/Src\stm32l4xx_hal_uart_ex.c ****   *       5-bit value defining the time between the activation of the DE (Driver Enable)
 168:C:/Users/SAM.KINUTHIA/.icode/sdk/IoT_LINK_1.0.0/drivers/third_party/ST/STM32L4xx_HAL_Driver/Src\stm32l4xx_hal_uart_ex.c ****   *       signal and the beginning of the start bit. It is expressed in sample time
 169:C:/Users/SAM.KINUTHIA/.icode/sdk/IoT_LINK_1.0.0/drivers/third_party/ST/STM32L4xx_HAL_Driver/Src\stm32l4xx_hal_uart_ex.c ****   *       units (1/8 or 1/16 bit time, depending on the oversampling rate)
 170:C:/Users/SAM.KINUTHIA/.icode/sdk/IoT_LINK_1.0.0/drivers/third_party/ST/STM32L4xx_HAL_Driver/Src\stm32l4xx_hal_uart_ex.c ****   * @param DeassertionTime  Driver Enable deassertion time:
 171:C:/Users/SAM.KINUTHIA/.icode/sdk/IoT_LINK_1.0.0/drivers/third_party/ST/STM32L4xx_HAL_Driver/Src\stm32l4xx_hal_uart_ex.c ****   *       5-bit value defining the time between the end of the last stop bit, in a
 172:C:/Users/SAM.KINUTHIA/.icode/sdk/IoT_LINK_1.0.0/drivers/third_party/ST/STM32L4xx_HAL_Driver/Src\stm32l4xx_hal_uart_ex.c ****   *       transmitted message, and the de-activation of the DE (Driver Enable) signal.
 173:C:/Users/SAM.KINUTHIA/.icode/sdk/IoT_LINK_1.0.0/drivers/third_party/ST/STM32L4xx_HAL_Driver/Src\stm32l4xx_hal_uart_ex.c ****   *       It is expressed in sample time units (1/8 or 1/16 bit time, depending on the
 174:C:/Users/SAM.KINUTHIA/.icode/sdk/IoT_LINK_1.0.0/drivers/third_party/ST/STM32L4xx_HAL_Driver/Src\stm32l4xx_hal_uart_ex.c ****   *       oversampling rate).
 175:C:/Users/SAM.KINUTHIA/.icode/sdk/IoT_LINK_1.0.0/drivers/third_party/ST/STM32L4xx_HAL_Driver/Src\stm32l4xx_hal_uart_ex.c ****   * @retval HAL status
 176:C:/Users/SAM.KINUTHIA/.icode/sdk/IoT_LINK_1.0.0/drivers/third_party/ST/STM32L4xx_HAL_Driver/Src\stm32l4xx_hal_uart_ex.c ****   */
 177:C:/Users/SAM.KINUTHIA/.icode/sdk/IoT_LINK_1.0.0/drivers/third_party/ST/STM32L4xx_HAL_Driver/Src\stm32l4xx_hal_uart_ex.c **** HAL_StatusTypeDef HAL_RS485Ex_Init(UART_HandleTypeDef *huart, uint32_t Polarity, uint32_t Assertion
 178:C:/Users/SAM.KINUTHIA/.icode/sdk/IoT_LINK_1.0.0/drivers/third_party/ST/STM32L4xx_HAL_Driver/Src\stm32l4xx_hal_uart_ex.c **** {
  28              		.loc 1 178 0
  29              		.cfi_startproc
  30              		@ args = 0, pretend = 0, frame = 24
  31              		@ frame_needed = 1, uses_anonymous_args = 0
  32 0000 80B5     		push	{r7, lr}
  33              	.LCFI0:
  34              		.cfi_def_cfa_offset 8
  35              		.cfi_offset 7, -8
  36              		.cfi_offset 14, -4
  37 0002 86B0     		sub	sp, sp, #24
  38              	.LCFI1:
  39              		.cfi_def_cfa_offset 32
  40 0004 00AF     		add	r7, sp, #0
  41              	.LCFI2:
  42              		.cfi_def_cfa_register 7
  43 0006 F860     		str	r0, [r7, #12]
  44 0008 B960     		str	r1, [r7, #8]
  45 000a 7A60     		str	r2, [r7, #4]
  46 000c 3B60     		str	r3, [r7]
 179:C:/Users/SAM.KINUTHIA/.icode/sdk/IoT_LINK_1.0.0/drivers/third_party/ST/STM32L4xx_HAL_Driver/Src\stm32l4xx_hal_uart_ex.c ****   uint32_t temp = 0x0;
  47              		.loc 1 179 0
  48 000e 0023     		movs	r3, #0
  49 0010 7B61     		str	r3, [r7, #20]
 180:C:/Users/SAM.KINUTHIA/.icode/sdk/IoT_LINK_1.0.0/drivers/third_party/ST/STM32L4xx_HAL_Driver/Src\stm32l4xx_hal_uart_ex.c ****   
ARM GAS  C:\Users\SAM~1.KIN\AppData\Local\Temp\ccbOvCcl.s 			page 5


 181:C:/Users/SAM.KINUTHIA/.icode/sdk/IoT_LINK_1.0.0/drivers/third_party/ST/STM32L4xx_HAL_Driver/Src\stm32l4xx_hal_uart_ex.c ****   /* Check the UART handle allocation */
 182:C:/Users/SAM.KINUTHIA/.icode/sdk/IoT_LINK_1.0.0/drivers/third_party/ST/STM32L4xx_HAL_Driver/Src\stm32l4xx_hal_uart_ex.c ****   if(huart == NULL)
  50              		.loc 1 182 0
  51 0012 FB68     		ldr	r3, [r7, #12]
  52 0014 002B     		cmp	r3, #0
  53 0016 01D1     		bne	.L2
 183:C:/Users/SAM.KINUTHIA/.icode/sdk/IoT_LINK_1.0.0/drivers/third_party/ST/STM32L4xx_HAL_Driver/Src\stm32l4xx_hal_uart_ex.c ****   {
 184:C:/Users/SAM.KINUTHIA/.icode/sdk/IoT_LINK_1.0.0/drivers/third_party/ST/STM32L4xx_HAL_Driver/Src\stm32l4xx_hal_uart_ex.c ****     return HAL_ERROR;
  54              		.loc 1 184 0
  55 0018 0123     		movs	r3, #1
  56 001a 59E0     		b	.L3
  57              	.L2:
 185:C:/Users/SAM.KINUTHIA/.icode/sdk/IoT_LINK_1.0.0/drivers/third_party/ST/STM32L4xx_HAL_Driver/Src\stm32l4xx_hal_uart_ex.c ****   }
 186:C:/Users/SAM.KINUTHIA/.icode/sdk/IoT_LINK_1.0.0/drivers/third_party/ST/STM32L4xx_HAL_Driver/Src\stm32l4xx_hal_uart_ex.c ****   /* Check the Driver Enable UART instance */
 187:C:/Users/SAM.KINUTHIA/.icode/sdk/IoT_LINK_1.0.0/drivers/third_party/ST/STM32L4xx_HAL_Driver/Src\stm32l4xx_hal_uart_ex.c ****   assert_param(IS_UART_DRIVER_ENABLE_INSTANCE(huart->Instance));
 188:C:/Users/SAM.KINUTHIA/.icode/sdk/IoT_LINK_1.0.0/drivers/third_party/ST/STM32L4xx_HAL_Driver/Src\stm32l4xx_hal_uart_ex.c ****   
 189:C:/Users/SAM.KINUTHIA/.icode/sdk/IoT_LINK_1.0.0/drivers/third_party/ST/STM32L4xx_HAL_Driver/Src\stm32l4xx_hal_uart_ex.c ****   /* Check the Driver Enable polarity */
 190:C:/Users/SAM.KINUTHIA/.icode/sdk/IoT_LINK_1.0.0/drivers/third_party/ST/STM32L4xx_HAL_Driver/Src\stm32l4xx_hal_uart_ex.c ****   assert_param(IS_UART_DE_POLARITY(Polarity));
 191:C:/Users/SAM.KINUTHIA/.icode/sdk/IoT_LINK_1.0.0/drivers/third_party/ST/STM32L4xx_HAL_Driver/Src\stm32l4xx_hal_uart_ex.c ****   
 192:C:/Users/SAM.KINUTHIA/.icode/sdk/IoT_LINK_1.0.0/drivers/third_party/ST/STM32L4xx_HAL_Driver/Src\stm32l4xx_hal_uart_ex.c ****   /* Check the Driver Enable assertion time */
 193:C:/Users/SAM.KINUTHIA/.icode/sdk/IoT_LINK_1.0.0/drivers/third_party/ST/STM32L4xx_HAL_Driver/Src\stm32l4xx_hal_uart_ex.c ****   assert_param(IS_UART_ASSERTIONTIME(AssertionTime));
 194:C:/Users/SAM.KINUTHIA/.icode/sdk/IoT_LINK_1.0.0/drivers/third_party/ST/STM32L4xx_HAL_Driver/Src\stm32l4xx_hal_uart_ex.c ****   
 195:C:/Users/SAM.KINUTHIA/.icode/sdk/IoT_LINK_1.0.0/drivers/third_party/ST/STM32L4xx_HAL_Driver/Src\stm32l4xx_hal_uart_ex.c ****   /* Check the Driver Enable deassertion time */
 196:C:/Users/SAM.KINUTHIA/.icode/sdk/IoT_LINK_1.0.0/drivers/third_party/ST/STM32L4xx_HAL_Driver/Src\stm32l4xx_hal_uart_ex.c ****   assert_param(IS_UART_DEASSERTIONTIME(DeassertionTime));
 197:C:/Users/SAM.KINUTHIA/.icode/sdk/IoT_LINK_1.0.0/drivers/third_party/ST/STM32L4xx_HAL_Driver/Src\stm32l4xx_hal_uart_ex.c ****   
 198:C:/Users/SAM.KINUTHIA/.icode/sdk/IoT_LINK_1.0.0/drivers/third_party/ST/STM32L4xx_HAL_Driver/Src\stm32l4xx_hal_uart_ex.c ****   if(huart->gState == HAL_UART_STATE_RESET)
  58              		.loc 1 198 0
  59 001c FB68     		ldr	r3, [r7, #12]
  60 001e 93F87130 		ldrb	r3, [r3, #113]
  61 0022 DBB2     		uxtb	r3, r3
  62 0024 002B     		cmp	r3, #0
  63 0026 06D1     		bne	.L4
 199:C:/Users/SAM.KINUTHIA/.icode/sdk/IoT_LINK_1.0.0/drivers/third_party/ST/STM32L4xx_HAL_Driver/Src\stm32l4xx_hal_uart_ex.c ****   {
 200:C:/Users/SAM.KINUTHIA/.icode/sdk/IoT_LINK_1.0.0/drivers/third_party/ST/STM32L4xx_HAL_Driver/Src\stm32l4xx_hal_uart_ex.c ****     /* Allocate lock resource and initialize it */
 201:C:/Users/SAM.KINUTHIA/.icode/sdk/IoT_LINK_1.0.0/drivers/third_party/ST/STM32L4xx_HAL_Driver/Src\stm32l4xx_hal_uart_ex.c ****     huart->Lock = HAL_UNLOCKED;
  64              		.loc 1 201 0
  65 0028 FB68     		ldr	r3, [r7, #12]
  66 002a 0022     		movs	r2, #0
  67 002c 83F87020 		strb	r2, [r3, #112]
 202:C:/Users/SAM.KINUTHIA/.icode/sdk/IoT_LINK_1.0.0/drivers/third_party/ST/STM32L4xx_HAL_Driver/Src\stm32l4xx_hal_uart_ex.c ****     
 203:C:/Users/SAM.KINUTHIA/.icode/sdk/IoT_LINK_1.0.0/drivers/third_party/ST/STM32L4xx_HAL_Driver/Src\stm32l4xx_hal_uart_ex.c ****     /* Init the low level hardware : GPIO, CLOCK, CORTEX */
 204:C:/Users/SAM.KINUTHIA/.icode/sdk/IoT_LINK_1.0.0/drivers/third_party/ST/STM32L4xx_HAL_Driver/Src\stm32l4xx_hal_uart_ex.c ****     HAL_UART_MspInit(huart);
  68              		.loc 1 204 0
  69 0030 F868     		ldr	r0, [r7, #12]
  70 0032 FFF7FEFF 		bl	HAL_UART_MspInit
  71              	.L4:
 205:C:/Users/SAM.KINUTHIA/.icode/sdk/IoT_LINK_1.0.0/drivers/third_party/ST/STM32L4xx_HAL_Driver/Src\stm32l4xx_hal_uart_ex.c ****   }
 206:C:/Users/SAM.KINUTHIA/.icode/sdk/IoT_LINK_1.0.0/drivers/third_party/ST/STM32L4xx_HAL_Driver/Src\stm32l4xx_hal_uart_ex.c ****   
 207:C:/Users/SAM.KINUTHIA/.icode/sdk/IoT_LINK_1.0.0/drivers/third_party/ST/STM32L4xx_HAL_Driver/Src\stm32l4xx_hal_uart_ex.c ****   huart->gState = HAL_UART_STATE_BUSY;
  72              		.loc 1 207 0
  73 0036 FB68     		ldr	r3, [r7, #12]
  74 0038 2422     		movs	r2, #36
  75 003a 83F87120 		strb	r2, [r3, #113]
 208:C:/Users/SAM.KINUTHIA/.icode/sdk/IoT_LINK_1.0.0/drivers/third_party/ST/STM32L4xx_HAL_Driver/Src\stm32l4xx_hal_uart_ex.c ****   
 209:C:/Users/SAM.KINUTHIA/.icode/sdk/IoT_LINK_1.0.0/drivers/third_party/ST/STM32L4xx_HAL_Driver/Src\stm32l4xx_hal_uart_ex.c ****   /* Disable the Peripheral */
 210:C:/Users/SAM.KINUTHIA/.icode/sdk/IoT_LINK_1.0.0/drivers/third_party/ST/STM32L4xx_HAL_Driver/Src\stm32l4xx_hal_uart_ex.c ****   __HAL_UART_DISABLE(huart);
  76              		.loc 1 210 0
ARM GAS  C:\Users\SAM~1.KIN\AppData\Local\Temp\ccbOvCcl.s 			page 6


  77 003e FB68     		ldr	r3, [r7, #12]
  78 0040 1B68     		ldr	r3, [r3]
  79 0042 1A68     		ldr	r2, [r3]
  80 0044 FB68     		ldr	r3, [r7, #12]
  81 0046 1B68     		ldr	r3, [r3]
  82 0048 22F00102 		bic	r2, r2, #1
  83 004c 1A60     		str	r2, [r3]
 211:C:/Users/SAM.KINUTHIA/.icode/sdk/IoT_LINK_1.0.0/drivers/third_party/ST/STM32L4xx_HAL_Driver/Src\stm32l4xx_hal_uart_ex.c ****   
 212:C:/Users/SAM.KINUTHIA/.icode/sdk/IoT_LINK_1.0.0/drivers/third_party/ST/STM32L4xx_HAL_Driver/Src\stm32l4xx_hal_uart_ex.c ****   /* Set the UART Communication parameters */
 213:C:/Users/SAM.KINUTHIA/.icode/sdk/IoT_LINK_1.0.0/drivers/third_party/ST/STM32L4xx_HAL_Driver/Src\stm32l4xx_hal_uart_ex.c ****   if (UART_SetConfig(huart) == HAL_ERROR)
  84              		.loc 1 213 0
  85 004e F868     		ldr	r0, [r7, #12]
  86 0050 FFF7FEFF 		bl	UART_SetConfig
  87 0054 0346     		mov	r3, r0
  88 0056 012B     		cmp	r3, #1
  89 0058 01D1     		bne	.L5
 214:C:/Users/SAM.KINUTHIA/.icode/sdk/IoT_LINK_1.0.0/drivers/third_party/ST/STM32L4xx_HAL_Driver/Src\stm32l4xx_hal_uart_ex.c ****   {
 215:C:/Users/SAM.KINUTHIA/.icode/sdk/IoT_LINK_1.0.0/drivers/third_party/ST/STM32L4xx_HAL_Driver/Src\stm32l4xx_hal_uart_ex.c ****     return HAL_ERROR;
  90              		.loc 1 215 0
  91 005a 0123     		movs	r3, #1
  92 005c 38E0     		b	.L3
  93              	.L5:
 216:C:/Users/SAM.KINUTHIA/.icode/sdk/IoT_LINK_1.0.0/drivers/third_party/ST/STM32L4xx_HAL_Driver/Src\stm32l4xx_hal_uart_ex.c ****   }
 217:C:/Users/SAM.KINUTHIA/.icode/sdk/IoT_LINK_1.0.0/drivers/third_party/ST/STM32L4xx_HAL_Driver/Src\stm32l4xx_hal_uart_ex.c ****   
 218:C:/Users/SAM.KINUTHIA/.icode/sdk/IoT_LINK_1.0.0/drivers/third_party/ST/STM32L4xx_HAL_Driver/Src\stm32l4xx_hal_uart_ex.c ****   if(huart->AdvancedInit.AdvFeatureInit != UART_ADVFEATURE_NO_INIT)
  94              		.loc 1 218 0
  95 005e FB68     		ldr	r3, [r7, #12]
  96 0060 5B6A     		ldr	r3, [r3, #36]
  97 0062 002B     		cmp	r3, #0
  98 0064 02D0     		beq	.L6
 219:C:/Users/SAM.KINUTHIA/.icode/sdk/IoT_LINK_1.0.0/drivers/third_party/ST/STM32L4xx_HAL_Driver/Src\stm32l4xx_hal_uart_ex.c ****   {
 220:C:/Users/SAM.KINUTHIA/.icode/sdk/IoT_LINK_1.0.0/drivers/third_party/ST/STM32L4xx_HAL_Driver/Src\stm32l4xx_hal_uart_ex.c ****     UART_AdvFeatureConfig(huart);
  99              		.loc 1 220 0
 100 0066 F868     		ldr	r0, [r7, #12]
 101 0068 FFF7FEFF 		bl	UART_AdvFeatureConfig
 102              	.L6:
 221:C:/Users/SAM.KINUTHIA/.icode/sdk/IoT_LINK_1.0.0/drivers/third_party/ST/STM32L4xx_HAL_Driver/Src\stm32l4xx_hal_uart_ex.c ****   }
 222:C:/Users/SAM.KINUTHIA/.icode/sdk/IoT_LINK_1.0.0/drivers/third_party/ST/STM32L4xx_HAL_Driver/Src\stm32l4xx_hal_uart_ex.c ****   
 223:C:/Users/SAM.KINUTHIA/.icode/sdk/IoT_LINK_1.0.0/drivers/third_party/ST/STM32L4xx_HAL_Driver/Src\stm32l4xx_hal_uart_ex.c ****   /* Enable the Driver Enable mode by setting the DEM bit in the CR3 register */
 224:C:/Users/SAM.KINUTHIA/.icode/sdk/IoT_LINK_1.0.0/drivers/third_party/ST/STM32L4xx_HAL_Driver/Src\stm32l4xx_hal_uart_ex.c ****   SET_BIT(huart->Instance->CR3, USART_CR3_DEM);
 103              		.loc 1 224 0
 104 006c FB68     		ldr	r3, [r7, #12]
 105 006e 1B68     		ldr	r3, [r3]
 106 0070 9A68     		ldr	r2, [r3, #8]
 107 0072 FB68     		ldr	r3, [r7, #12]
 108 0074 1B68     		ldr	r3, [r3]
 109 0076 42F48042 		orr	r2, r2, #16384
 110 007a 9A60     		str	r2, [r3, #8]
 225:C:/Users/SAM.KINUTHIA/.icode/sdk/IoT_LINK_1.0.0/drivers/third_party/ST/STM32L4xx_HAL_Driver/Src\stm32l4xx_hal_uart_ex.c ****   
 226:C:/Users/SAM.KINUTHIA/.icode/sdk/IoT_LINK_1.0.0/drivers/third_party/ST/STM32L4xx_HAL_Driver/Src\stm32l4xx_hal_uart_ex.c ****   /* Set the Driver Enable polarity */
 227:C:/Users/SAM.KINUTHIA/.icode/sdk/IoT_LINK_1.0.0/drivers/third_party/ST/STM32L4xx_HAL_Driver/Src\stm32l4xx_hal_uart_ex.c ****   MODIFY_REG(huart->Instance->CR3, USART_CR3_DEP, Polarity);
 111              		.loc 1 227 0
 112 007c FB68     		ldr	r3, [r7, #12]
 113 007e 1B68     		ldr	r3, [r3]
 114 0080 9B68     		ldr	r3, [r3, #8]
 115 0082 23F40041 		bic	r1, r3, #32768
 116 0086 FB68     		ldr	r3, [r7, #12]
ARM GAS  C:\Users\SAM~1.KIN\AppData\Local\Temp\ccbOvCcl.s 			page 7


 117 0088 1B68     		ldr	r3, [r3]
 118 008a BA68     		ldr	r2, [r7, #8]
 119 008c 0A43     		orrs	r2, r2, r1
 120 008e 9A60     		str	r2, [r3, #8]
 228:C:/Users/SAM.KINUTHIA/.icode/sdk/IoT_LINK_1.0.0/drivers/third_party/ST/STM32L4xx_HAL_Driver/Src\stm32l4xx_hal_uart_ex.c ****   
 229:C:/Users/SAM.KINUTHIA/.icode/sdk/IoT_LINK_1.0.0/drivers/third_party/ST/STM32L4xx_HAL_Driver/Src\stm32l4xx_hal_uart_ex.c ****   /* Set the Driver Enable assertion and deassertion times */
 230:C:/Users/SAM.KINUTHIA/.icode/sdk/IoT_LINK_1.0.0/drivers/third_party/ST/STM32L4xx_HAL_Driver/Src\stm32l4xx_hal_uart_ex.c ****   temp = (AssertionTime << UART_CR1_DEAT_ADDRESS_LSB_POS);
 121              		.loc 1 230 0
 122 0090 7B68     		ldr	r3, [r7, #4]
 123 0092 5B05     		lsls	r3, r3, #21
 124 0094 7B61     		str	r3, [r7, #20]
 231:C:/Users/SAM.KINUTHIA/.icode/sdk/IoT_LINK_1.0.0/drivers/third_party/ST/STM32L4xx_HAL_Driver/Src\stm32l4xx_hal_uart_ex.c ****   temp |= (DeassertionTime << UART_CR1_DEDT_ADDRESS_LSB_POS);
 125              		.loc 1 231 0
 126 0096 3B68     		ldr	r3, [r7]
 127 0098 1B04     		lsls	r3, r3, #16
 128 009a 7A69     		ldr	r2, [r7, #20]
 129 009c 1343     		orrs	r3, r3, r2
 130 009e 7B61     		str	r3, [r7, #20]
 232:C:/Users/SAM.KINUTHIA/.icode/sdk/IoT_LINK_1.0.0/drivers/third_party/ST/STM32L4xx_HAL_Driver/Src\stm32l4xx_hal_uart_ex.c ****   MODIFY_REG(huart->Instance->CR1, (USART_CR1_DEDT|USART_CR1_DEAT), temp);
 131              		.loc 1 232 0
 132 00a0 FB68     		ldr	r3, [r7, #12]
 133 00a2 1B68     		ldr	r3, [r3]
 134 00a4 1B68     		ldr	r3, [r3]
 135 00a6 23F07F73 		bic	r3, r3, #66846720
 136 00aa 23F44033 		bic	r3, r3, #196608
 137 00ae FA68     		ldr	r2, [r7, #12]
 138 00b0 1268     		ldr	r2, [r2]
 139 00b2 7969     		ldr	r1, [r7, #20]
 140 00b4 0B43     		orrs	r3, r3, r1
 141 00b6 1360     		str	r3, [r2]
 233:C:/Users/SAM.KINUTHIA/.icode/sdk/IoT_LINK_1.0.0/drivers/third_party/ST/STM32L4xx_HAL_Driver/Src\stm32l4xx_hal_uart_ex.c ****   
 234:C:/Users/SAM.KINUTHIA/.icode/sdk/IoT_LINK_1.0.0/drivers/third_party/ST/STM32L4xx_HAL_Driver/Src\stm32l4xx_hal_uart_ex.c ****   /* Enable the Peripheral */
 235:C:/Users/SAM.KINUTHIA/.icode/sdk/IoT_LINK_1.0.0/drivers/third_party/ST/STM32L4xx_HAL_Driver/Src\stm32l4xx_hal_uart_ex.c ****   __HAL_UART_ENABLE(huart);
 142              		.loc 1 235 0
 143 00b8 FB68     		ldr	r3, [r7, #12]
 144 00ba 1B68     		ldr	r3, [r3]
 145 00bc 1A68     		ldr	r2, [r3]
 146 00be FB68     		ldr	r3, [r7, #12]
 147 00c0 1B68     		ldr	r3, [r3]
 148 00c2 42F00102 		orr	r2, r2, #1
 149 00c6 1A60     		str	r2, [r3]
 236:C:/Users/SAM.KINUTHIA/.icode/sdk/IoT_LINK_1.0.0/drivers/third_party/ST/STM32L4xx_HAL_Driver/Src\stm32l4xx_hal_uart_ex.c ****   
 237:C:/Users/SAM.KINUTHIA/.icode/sdk/IoT_LINK_1.0.0/drivers/third_party/ST/STM32L4xx_HAL_Driver/Src\stm32l4xx_hal_uart_ex.c ****   /* TEACK and/or REACK to check before moving huart->gState and huart->RxState to Ready */
 238:C:/Users/SAM.KINUTHIA/.icode/sdk/IoT_LINK_1.0.0/drivers/third_party/ST/STM32L4xx_HAL_Driver/Src\stm32l4xx_hal_uart_ex.c ****   return (UART_CheckIdleState(huart));
 150              		.loc 1 238 0
 151 00c8 F868     		ldr	r0, [r7, #12]
 152 00ca FFF7FEFF 		bl	UART_CheckIdleState
 153 00ce 0346     		mov	r3, r0
 154              	.L3:
 239:C:/Users/SAM.KINUTHIA/.icode/sdk/IoT_LINK_1.0.0/drivers/third_party/ST/STM32L4xx_HAL_Driver/Src\stm32l4xx_hal_uart_ex.c **** }
 155              		.loc 1 239 0
 156 00d0 1846     		mov	r0, r3
 157 00d2 1837     		adds	r7, r7, #24
 158              	.LCFI3:
 159              		.cfi_def_cfa_offset 8
 160 00d4 BD46     		mov	sp, r7
 161              	.LCFI4:
ARM GAS  C:\Users\SAM~1.KIN\AppData\Local\Temp\ccbOvCcl.s 			page 8


 162              		.cfi_def_cfa_register 13
 163              		@ sp needed
 164 00d6 80BD     		pop	{r7, pc}
 165              		.cfi_endproc
 166              	.LFE287:
 168              		.section	.text.HAL_UARTEx_WakeupCallback,"ax",%progbits
 169              		.align	1
 170              		.weak	HAL_UARTEx_WakeupCallback
 171              		.syntax unified
 172              		.thumb
 173              		.thumb_func
 174              		.fpu fpv4-sp-d16
 176              	HAL_UARTEx_WakeupCallback:
 177              	.LFB288:
 240:C:/Users/SAM.KINUTHIA/.icode/sdk/IoT_LINK_1.0.0/drivers/third_party/ST/STM32L4xx_HAL_Driver/Src\stm32l4xx_hal_uart_ex.c **** 
 241:C:/Users/SAM.KINUTHIA/.icode/sdk/IoT_LINK_1.0.0/drivers/third_party/ST/STM32L4xx_HAL_Driver/Src\stm32l4xx_hal_uart_ex.c **** 
 242:C:/Users/SAM.KINUTHIA/.icode/sdk/IoT_LINK_1.0.0/drivers/third_party/ST/STM32L4xx_HAL_Driver/Src\stm32l4xx_hal_uart_ex.c **** /**
 243:C:/Users/SAM.KINUTHIA/.icode/sdk/IoT_LINK_1.0.0/drivers/third_party/ST/STM32L4xx_HAL_Driver/Src\stm32l4xx_hal_uart_ex.c ****   * @}
 244:C:/Users/SAM.KINUTHIA/.icode/sdk/IoT_LINK_1.0.0/drivers/third_party/ST/STM32L4xx_HAL_Driver/Src\stm32l4xx_hal_uart_ex.c ****   */
 245:C:/Users/SAM.KINUTHIA/.icode/sdk/IoT_LINK_1.0.0/drivers/third_party/ST/STM32L4xx_HAL_Driver/Src\stm32l4xx_hal_uart_ex.c **** 
 246:C:/Users/SAM.KINUTHIA/.icode/sdk/IoT_LINK_1.0.0/drivers/third_party/ST/STM32L4xx_HAL_Driver/Src\stm32l4xx_hal_uart_ex.c **** /** @defgroup UARTEx_Exported_Functions_Group2 IO operation functions
 247:C:/Users/SAM.KINUTHIA/.icode/sdk/IoT_LINK_1.0.0/drivers/third_party/ST/STM32L4xx_HAL_Driver/Src\stm32l4xx_hal_uart_ex.c ****   *  @brief Extended functions
 248:C:/Users/SAM.KINUTHIA/.icode/sdk/IoT_LINK_1.0.0/drivers/third_party/ST/STM32L4xx_HAL_Driver/Src\stm32l4xx_hal_uart_ex.c ****   *
 249:C:/Users/SAM.KINUTHIA/.icode/sdk/IoT_LINK_1.0.0/drivers/third_party/ST/STM32L4xx_HAL_Driver/Src\stm32l4xx_hal_uart_ex.c **** @verbatim
 250:C:/Users/SAM.KINUTHIA/.icode/sdk/IoT_LINK_1.0.0/drivers/third_party/ST/STM32L4xx_HAL_Driver/Src\stm32l4xx_hal_uart_ex.c ****  ===============================================================================
 251:C:/Users/SAM.KINUTHIA/.icode/sdk/IoT_LINK_1.0.0/drivers/third_party/ST/STM32L4xx_HAL_Driver/Src\stm32l4xx_hal_uart_ex.c ****                       ##### IO operation functions #####
 252:C:/Users/SAM.KINUTHIA/.icode/sdk/IoT_LINK_1.0.0/drivers/third_party/ST/STM32L4xx_HAL_Driver/Src\stm32l4xx_hal_uart_ex.c ****  ===============================================================================
 253:C:/Users/SAM.KINUTHIA/.icode/sdk/IoT_LINK_1.0.0/drivers/third_party/ST/STM32L4xx_HAL_Driver/Src\stm32l4xx_hal_uart_ex.c ****     This subsection provides a set of Wakeup and FIFO mode related callback functions.
 254:C:/Users/SAM.KINUTHIA/.icode/sdk/IoT_LINK_1.0.0/drivers/third_party/ST/STM32L4xx_HAL_Driver/Src\stm32l4xx_hal_uart_ex.c **** 
 255:C:/Users/SAM.KINUTHIA/.icode/sdk/IoT_LINK_1.0.0/drivers/third_party/ST/STM32L4xx_HAL_Driver/Src\stm32l4xx_hal_uart_ex.c ****     (#) Wakeup from Stop mode Callback:
 256:C:/Users/SAM.KINUTHIA/.icode/sdk/IoT_LINK_1.0.0/drivers/third_party/ST/STM32L4xx_HAL_Driver/Src\stm32l4xx_hal_uart_ex.c ****         (+) HAL_UARTEx_WakeupCallback()
 257:C:/Users/SAM.KINUTHIA/.icode/sdk/IoT_LINK_1.0.0/drivers/third_party/ST/STM32L4xx_HAL_Driver/Src\stm32l4xx_hal_uart_ex.c **** 
 258:C:/Users/SAM.KINUTHIA/.icode/sdk/IoT_LINK_1.0.0/drivers/third_party/ST/STM32L4xx_HAL_Driver/Src\stm32l4xx_hal_uart_ex.c ****     (#) TX/RX Fifos Callbacks:
 259:C:/Users/SAM.KINUTHIA/.icode/sdk/IoT_LINK_1.0.0/drivers/third_party/ST/STM32L4xx_HAL_Driver/Src\stm32l4xx_hal_uart_ex.c ****         (+) HAL_UARTEx_RxFifoFullCallback()
 260:C:/Users/SAM.KINUTHIA/.icode/sdk/IoT_LINK_1.0.0/drivers/third_party/ST/STM32L4xx_HAL_Driver/Src\stm32l4xx_hal_uart_ex.c ****         (+) HAL_UARTEx_TxFifoEmptyCallback()
 261:C:/Users/SAM.KINUTHIA/.icode/sdk/IoT_LINK_1.0.0/drivers/third_party/ST/STM32L4xx_HAL_Driver/Src\stm32l4xx_hal_uart_ex.c **** 
 262:C:/Users/SAM.KINUTHIA/.icode/sdk/IoT_LINK_1.0.0/drivers/third_party/ST/STM32L4xx_HAL_Driver/Src\stm32l4xx_hal_uart_ex.c **** @endverbatim
 263:C:/Users/SAM.KINUTHIA/.icode/sdk/IoT_LINK_1.0.0/drivers/third_party/ST/STM32L4xx_HAL_Driver/Src\stm32l4xx_hal_uart_ex.c ****   * @{
 264:C:/Users/SAM.KINUTHIA/.icode/sdk/IoT_LINK_1.0.0/drivers/third_party/ST/STM32L4xx_HAL_Driver/Src\stm32l4xx_hal_uart_ex.c ****   */
 265:C:/Users/SAM.KINUTHIA/.icode/sdk/IoT_LINK_1.0.0/drivers/third_party/ST/STM32L4xx_HAL_Driver/Src\stm32l4xx_hal_uart_ex.c **** 
 266:C:/Users/SAM.KINUTHIA/.icode/sdk/IoT_LINK_1.0.0/drivers/third_party/ST/STM32L4xx_HAL_Driver/Src\stm32l4xx_hal_uart_ex.c **** /**
 267:C:/Users/SAM.KINUTHIA/.icode/sdk/IoT_LINK_1.0.0/drivers/third_party/ST/STM32L4xx_HAL_Driver/Src\stm32l4xx_hal_uart_ex.c ****   * @brief UART wakeup from Stop mode callback.
 268:C:/Users/SAM.KINUTHIA/.icode/sdk/IoT_LINK_1.0.0/drivers/third_party/ST/STM32L4xx_HAL_Driver/Src\stm32l4xx_hal_uart_ex.c ****   * @param huart UART handle.
 269:C:/Users/SAM.KINUTHIA/.icode/sdk/IoT_LINK_1.0.0/drivers/third_party/ST/STM32L4xx_HAL_Driver/Src\stm32l4xx_hal_uart_ex.c ****   * @retval None
 270:C:/Users/SAM.KINUTHIA/.icode/sdk/IoT_LINK_1.0.0/drivers/third_party/ST/STM32L4xx_HAL_Driver/Src\stm32l4xx_hal_uart_ex.c ****   */
 271:C:/Users/SAM.KINUTHIA/.icode/sdk/IoT_LINK_1.0.0/drivers/third_party/ST/STM32L4xx_HAL_Driver/Src\stm32l4xx_hal_uart_ex.c ****  __weak void HAL_UARTEx_WakeupCallback(UART_HandleTypeDef *huart)
 272:C:/Users/SAM.KINUTHIA/.icode/sdk/IoT_LINK_1.0.0/drivers/third_party/ST/STM32L4xx_HAL_Driver/Src\stm32l4xx_hal_uart_ex.c **** {
 178              		.loc 1 272 0
 179              		.cfi_startproc
 180              		@ args = 0, pretend = 0, frame = 8
 181              		@ frame_needed = 1, uses_anonymous_args = 0
 182              		@ link register save eliminated.
 183 0000 80B4     		push	{r7}
 184              	.LCFI5:
 185              		.cfi_def_cfa_offset 4
 186              		.cfi_offset 7, -4
 187 0002 83B0     		sub	sp, sp, #12
ARM GAS  C:\Users\SAM~1.KIN\AppData\Local\Temp\ccbOvCcl.s 			page 9


 188              	.LCFI6:
 189              		.cfi_def_cfa_offset 16
 190 0004 00AF     		add	r7, sp, #0
 191              	.LCFI7:
 192              		.cfi_def_cfa_register 7
 193 0006 7860     		str	r0, [r7, #4]
 273:C:/Users/SAM.KINUTHIA/.icode/sdk/IoT_LINK_1.0.0/drivers/third_party/ST/STM32L4xx_HAL_Driver/Src\stm32l4xx_hal_uart_ex.c ****   /* Prevent unused argument(s) compilation warning */
 274:C:/Users/SAM.KINUTHIA/.icode/sdk/IoT_LINK_1.0.0/drivers/third_party/ST/STM32L4xx_HAL_Driver/Src\stm32l4xx_hal_uart_ex.c ****   UNUSED(huart);
 275:C:/Users/SAM.KINUTHIA/.icode/sdk/IoT_LINK_1.0.0/drivers/third_party/ST/STM32L4xx_HAL_Driver/Src\stm32l4xx_hal_uart_ex.c **** 
 276:C:/Users/SAM.KINUTHIA/.icode/sdk/IoT_LINK_1.0.0/drivers/third_party/ST/STM32L4xx_HAL_Driver/Src\stm32l4xx_hal_uart_ex.c ****   /* NOTE : This function should not be modified, when the callback is needed,
 277:C:/Users/SAM.KINUTHIA/.icode/sdk/IoT_LINK_1.0.0/drivers/third_party/ST/STM32L4xx_HAL_Driver/Src\stm32l4xx_hal_uart_ex.c ****             the HAL_UARTEx_WakeupCallback can be implemented in the user file.
 278:C:/Users/SAM.KINUTHIA/.icode/sdk/IoT_LINK_1.0.0/drivers/third_party/ST/STM32L4xx_HAL_Driver/Src\stm32l4xx_hal_uart_ex.c ****    */
 279:C:/Users/SAM.KINUTHIA/.icode/sdk/IoT_LINK_1.0.0/drivers/third_party/ST/STM32L4xx_HAL_Driver/Src\stm32l4xx_hal_uart_ex.c **** }
 194              		.loc 1 279 0
 195 0008 00BF     		nop
 196 000a 0C37     		adds	r7, r7, #12
 197              	.LCFI8:
 198              		.cfi_def_cfa_offset 4
 199 000c BD46     		mov	sp, r7
 200              	.LCFI9:
 201              		.cfi_def_cfa_register 13
 202              		@ sp needed
 203 000e 5DF8047B 		ldr	r7, [sp], #4
 204              	.LCFI10:
 205              		.cfi_restore 7
 206              		.cfi_def_cfa_offset 0
 207 0012 7047     		bx	lr
 208              		.cfi_endproc
 209              	.LFE288:
 211              		.section	.text.HAL_MultiProcessorEx_AddressLength_Set,"ax",%progbits
 212              		.align	1
 213              		.global	HAL_MultiProcessorEx_AddressLength_Set
 214              		.syntax unified
 215              		.thumb
 216              		.thumb_func
 217              		.fpu fpv4-sp-d16
 219              	HAL_MultiProcessorEx_AddressLength_Set:
 220              	.LFB289:
 280:C:/Users/SAM.KINUTHIA/.icode/sdk/IoT_LINK_1.0.0/drivers/third_party/ST/STM32L4xx_HAL_Driver/Src\stm32l4xx_hal_uart_ex.c **** 
 281:C:/Users/SAM.KINUTHIA/.icode/sdk/IoT_LINK_1.0.0/drivers/third_party/ST/STM32L4xx_HAL_Driver/Src\stm32l4xx_hal_uart_ex.c **** #if defined(USART_CR1_FIFOEN)
 282:C:/Users/SAM.KINUTHIA/.icode/sdk/IoT_LINK_1.0.0/drivers/third_party/ST/STM32L4xx_HAL_Driver/Src\stm32l4xx_hal_uart_ex.c **** /**
 283:C:/Users/SAM.KINUTHIA/.icode/sdk/IoT_LINK_1.0.0/drivers/third_party/ST/STM32L4xx_HAL_Driver/Src\stm32l4xx_hal_uart_ex.c ****   * @brief  UART RX Fifo full callback.
 284:C:/Users/SAM.KINUTHIA/.icode/sdk/IoT_LINK_1.0.0/drivers/third_party/ST/STM32L4xx_HAL_Driver/Src\stm32l4xx_hal_uart_ex.c ****   * @param  huart UART handle.
 285:C:/Users/SAM.KINUTHIA/.icode/sdk/IoT_LINK_1.0.0/drivers/third_party/ST/STM32L4xx_HAL_Driver/Src\stm32l4xx_hal_uart_ex.c ****   * @retval None
 286:C:/Users/SAM.KINUTHIA/.icode/sdk/IoT_LINK_1.0.0/drivers/third_party/ST/STM32L4xx_HAL_Driver/Src\stm32l4xx_hal_uart_ex.c ****   */
 287:C:/Users/SAM.KINUTHIA/.icode/sdk/IoT_LINK_1.0.0/drivers/third_party/ST/STM32L4xx_HAL_Driver/Src\stm32l4xx_hal_uart_ex.c **** __weak void HAL_UARTEx_RxFifoFullCallback (UART_HandleTypeDef *huart)
 288:C:/Users/SAM.KINUTHIA/.icode/sdk/IoT_LINK_1.0.0/drivers/third_party/ST/STM32L4xx_HAL_Driver/Src\stm32l4xx_hal_uart_ex.c **** {
 289:C:/Users/SAM.KINUTHIA/.icode/sdk/IoT_LINK_1.0.0/drivers/third_party/ST/STM32L4xx_HAL_Driver/Src\stm32l4xx_hal_uart_ex.c ****   /* Prevent unused argument(s) compilation warning */
 290:C:/Users/SAM.KINUTHIA/.icode/sdk/IoT_LINK_1.0.0/drivers/third_party/ST/STM32L4xx_HAL_Driver/Src\stm32l4xx_hal_uart_ex.c ****   UNUSED(huart);
 291:C:/Users/SAM.KINUTHIA/.icode/sdk/IoT_LINK_1.0.0/drivers/third_party/ST/STM32L4xx_HAL_Driver/Src\stm32l4xx_hal_uart_ex.c **** 
 292:C:/Users/SAM.KINUTHIA/.icode/sdk/IoT_LINK_1.0.0/drivers/third_party/ST/STM32L4xx_HAL_Driver/Src\stm32l4xx_hal_uart_ex.c ****   /* NOTE : This function should not be modified, when the callback is needed,
 293:C:/Users/SAM.KINUTHIA/.icode/sdk/IoT_LINK_1.0.0/drivers/third_party/ST/STM32L4xx_HAL_Driver/Src\stm32l4xx_hal_uart_ex.c ****             the HAL_UARTEx_RxFifoFullCallback can be implemented in the user file.
 294:C:/Users/SAM.KINUTHIA/.icode/sdk/IoT_LINK_1.0.0/drivers/third_party/ST/STM32L4xx_HAL_Driver/Src\stm32l4xx_hal_uart_ex.c ****    */
 295:C:/Users/SAM.KINUTHIA/.icode/sdk/IoT_LINK_1.0.0/drivers/third_party/ST/STM32L4xx_HAL_Driver/Src\stm32l4xx_hal_uart_ex.c **** }
 296:C:/Users/SAM.KINUTHIA/.icode/sdk/IoT_LINK_1.0.0/drivers/third_party/ST/STM32L4xx_HAL_Driver/Src\stm32l4xx_hal_uart_ex.c **** 
 297:C:/Users/SAM.KINUTHIA/.icode/sdk/IoT_LINK_1.0.0/drivers/third_party/ST/STM32L4xx_HAL_Driver/Src\stm32l4xx_hal_uart_ex.c **** /**
 298:C:/Users/SAM.KINUTHIA/.icode/sdk/IoT_LINK_1.0.0/drivers/third_party/ST/STM32L4xx_HAL_Driver/Src\stm32l4xx_hal_uart_ex.c ****   * @brief  UART TX Fifo empty callback.
ARM GAS  C:\Users\SAM~1.KIN\AppData\Local\Temp\ccbOvCcl.s 			page 10


 299:C:/Users/SAM.KINUTHIA/.icode/sdk/IoT_LINK_1.0.0/drivers/third_party/ST/STM32L4xx_HAL_Driver/Src\stm32l4xx_hal_uart_ex.c ****   * @param  huart UART handle.
 300:C:/Users/SAM.KINUTHIA/.icode/sdk/IoT_LINK_1.0.0/drivers/third_party/ST/STM32L4xx_HAL_Driver/Src\stm32l4xx_hal_uart_ex.c ****   * @retval None
 301:C:/Users/SAM.KINUTHIA/.icode/sdk/IoT_LINK_1.0.0/drivers/third_party/ST/STM32L4xx_HAL_Driver/Src\stm32l4xx_hal_uart_ex.c ****   */
 302:C:/Users/SAM.KINUTHIA/.icode/sdk/IoT_LINK_1.0.0/drivers/third_party/ST/STM32L4xx_HAL_Driver/Src\stm32l4xx_hal_uart_ex.c **** __weak void HAL_UARTEx_TxFifoEmptyCallback (UART_HandleTypeDef *huart)
 303:C:/Users/SAM.KINUTHIA/.icode/sdk/IoT_LINK_1.0.0/drivers/third_party/ST/STM32L4xx_HAL_Driver/Src\stm32l4xx_hal_uart_ex.c **** {
 304:C:/Users/SAM.KINUTHIA/.icode/sdk/IoT_LINK_1.0.0/drivers/third_party/ST/STM32L4xx_HAL_Driver/Src\stm32l4xx_hal_uart_ex.c ****   /* Prevent unused argument(s) compilation warning */
 305:C:/Users/SAM.KINUTHIA/.icode/sdk/IoT_LINK_1.0.0/drivers/third_party/ST/STM32L4xx_HAL_Driver/Src\stm32l4xx_hal_uart_ex.c ****   UNUSED(huart);
 306:C:/Users/SAM.KINUTHIA/.icode/sdk/IoT_LINK_1.0.0/drivers/third_party/ST/STM32L4xx_HAL_Driver/Src\stm32l4xx_hal_uart_ex.c **** 
 307:C:/Users/SAM.KINUTHIA/.icode/sdk/IoT_LINK_1.0.0/drivers/third_party/ST/STM32L4xx_HAL_Driver/Src\stm32l4xx_hal_uart_ex.c ****   /* NOTE : This function should not be modified, when the callback is needed,
 308:C:/Users/SAM.KINUTHIA/.icode/sdk/IoT_LINK_1.0.0/drivers/third_party/ST/STM32L4xx_HAL_Driver/Src\stm32l4xx_hal_uart_ex.c ****             the HAL_UARTEx_TxFifoEmptyCallback can be implemented in the user file.
 309:C:/Users/SAM.KINUTHIA/.icode/sdk/IoT_LINK_1.0.0/drivers/third_party/ST/STM32L4xx_HAL_Driver/Src\stm32l4xx_hal_uart_ex.c ****    */
 310:C:/Users/SAM.KINUTHIA/.icode/sdk/IoT_LINK_1.0.0/drivers/third_party/ST/STM32L4xx_HAL_Driver/Src\stm32l4xx_hal_uart_ex.c **** }
 311:C:/Users/SAM.KINUTHIA/.icode/sdk/IoT_LINK_1.0.0/drivers/third_party/ST/STM32L4xx_HAL_Driver/Src\stm32l4xx_hal_uart_ex.c **** #endif
 312:C:/Users/SAM.KINUTHIA/.icode/sdk/IoT_LINK_1.0.0/drivers/third_party/ST/STM32L4xx_HAL_Driver/Src\stm32l4xx_hal_uart_ex.c **** 
 313:C:/Users/SAM.KINUTHIA/.icode/sdk/IoT_LINK_1.0.0/drivers/third_party/ST/STM32L4xx_HAL_Driver/Src\stm32l4xx_hal_uart_ex.c **** /**
 314:C:/Users/SAM.KINUTHIA/.icode/sdk/IoT_LINK_1.0.0/drivers/third_party/ST/STM32L4xx_HAL_Driver/Src\stm32l4xx_hal_uart_ex.c ****   * @}
 315:C:/Users/SAM.KINUTHIA/.icode/sdk/IoT_LINK_1.0.0/drivers/third_party/ST/STM32L4xx_HAL_Driver/Src\stm32l4xx_hal_uart_ex.c ****   */
 316:C:/Users/SAM.KINUTHIA/.icode/sdk/IoT_LINK_1.0.0/drivers/third_party/ST/STM32L4xx_HAL_Driver/Src\stm32l4xx_hal_uart_ex.c **** 
 317:C:/Users/SAM.KINUTHIA/.icode/sdk/IoT_LINK_1.0.0/drivers/third_party/ST/STM32L4xx_HAL_Driver/Src\stm32l4xx_hal_uart_ex.c **** /** @defgroup UARTEx_Exported_Functions_Group3 Peripheral Control functions
 318:C:/Users/SAM.KINUTHIA/.icode/sdk/IoT_LINK_1.0.0/drivers/third_party/ST/STM32L4xx_HAL_Driver/Src\stm32l4xx_hal_uart_ex.c ****   * @brief    Extended Peripheral Control functions
 319:C:/Users/SAM.KINUTHIA/.icode/sdk/IoT_LINK_1.0.0/drivers/third_party/ST/STM32L4xx_HAL_Driver/Src\stm32l4xx_hal_uart_ex.c ****  *
 320:C:/Users/SAM.KINUTHIA/.icode/sdk/IoT_LINK_1.0.0/drivers/third_party/ST/STM32L4xx_HAL_Driver/Src\stm32l4xx_hal_uart_ex.c **** @verbatim
 321:C:/Users/SAM.KINUTHIA/.icode/sdk/IoT_LINK_1.0.0/drivers/third_party/ST/STM32L4xx_HAL_Driver/Src\stm32l4xx_hal_uart_ex.c ****  ===============================================================================
 322:C:/Users/SAM.KINUTHIA/.icode/sdk/IoT_LINK_1.0.0/drivers/third_party/ST/STM32L4xx_HAL_Driver/Src\stm32l4xx_hal_uart_ex.c ****                       ##### Peripheral Control functions #####
 323:C:/Users/SAM.KINUTHIA/.icode/sdk/IoT_LINK_1.0.0/drivers/third_party/ST/STM32L4xx_HAL_Driver/Src\stm32l4xx_hal_uart_ex.c ****  ===============================================================================
 324:C:/Users/SAM.KINUTHIA/.icode/sdk/IoT_LINK_1.0.0/drivers/third_party/ST/STM32L4xx_HAL_Driver/Src\stm32l4xx_hal_uart_ex.c ****     [..] This section provides the following functions:
 325:C:/Users/SAM.KINUTHIA/.icode/sdk/IoT_LINK_1.0.0/drivers/third_party/ST/STM32L4xx_HAL_Driver/Src\stm32l4xx_hal_uart_ex.c ****      (+) HAL_UARTEx_EnableClockStopMode() API enables the UART clock (HSI or LSE only) during stop 
 326:C:/Users/SAM.KINUTHIA/.icode/sdk/IoT_LINK_1.0.0/drivers/third_party/ST/STM32L4xx_HAL_Driver/Src\stm32l4xx_hal_uart_ex.c ****      (+) HAL_UARTEx_DisableClockStopMode() API disables the above functionality
 327:C:/Users/SAM.KINUTHIA/.icode/sdk/IoT_LINK_1.0.0/drivers/third_party/ST/STM32L4xx_HAL_Driver/Src\stm32l4xx_hal_uart_ex.c ****      (+) HAL_MultiProcessorEx_AddressLength_Set() API optionally sets the UART node address
 328:C:/Users/SAM.KINUTHIA/.icode/sdk/IoT_LINK_1.0.0/drivers/third_party/ST/STM32L4xx_HAL_Driver/Src\stm32l4xx_hal_uart_ex.c ****          detection length to more than 4 bits for multiprocessor address mark wake up.
 329:C:/Users/SAM.KINUTHIA/.icode/sdk/IoT_LINK_1.0.0/drivers/third_party/ST/STM32L4xx_HAL_Driver/Src\stm32l4xx_hal_uart_ex.c ****      (+) HAL_UARTEx_StopModeWakeUpSourceConfig() API defines the wake-up from stop mode
 330:C:/Users/SAM.KINUTHIA/.icode/sdk/IoT_LINK_1.0.0/drivers/third_party/ST/STM32L4xx_HAL_Driver/Src\stm32l4xx_hal_uart_ex.c ****          trigger: address match, Start Bit detection or RXNE bit status.
 331:C:/Users/SAM.KINUTHIA/.icode/sdk/IoT_LINK_1.0.0/drivers/third_party/ST/STM32L4xx_HAL_Driver/Src\stm32l4xx_hal_uart_ex.c ****      (+) HAL_UARTEx_EnableStopMode() API enables the UART to wake up the MCU from stop mode
 332:C:/Users/SAM.KINUTHIA/.icode/sdk/IoT_LINK_1.0.0/drivers/third_party/ST/STM32L4xx_HAL_Driver/Src\stm32l4xx_hal_uart_ex.c ****      (+) HAL_UARTEx_DisableStopMode() API disables the above functionality
 333:C:/Users/SAM.KINUTHIA/.icode/sdk/IoT_LINK_1.0.0/drivers/third_party/ST/STM32L4xx_HAL_Driver/Src\stm32l4xx_hal_uart_ex.c ****      (+) HAL_UARTEx_WakeupCallback() called upon UART wakeup interrupt
 334:C:/Users/SAM.KINUTHIA/.icode/sdk/IoT_LINK_1.0.0/drivers/third_party/ST/STM32L4xx_HAL_Driver/Src\stm32l4xx_hal_uart_ex.c ****      (+) HAL_UARTEx_EnableSPISlaveMode() API enables the SPI slave mode
 335:C:/Users/SAM.KINUTHIA/.icode/sdk/IoT_LINK_1.0.0/drivers/third_party/ST/STM32L4xx_HAL_Driver/Src\stm32l4xx_hal_uart_ex.c ****      (+) HAL_UARTEx_DisableSPISlaveMode() API disables the SPI slave mode
 336:C:/Users/SAM.KINUTHIA/.icode/sdk/IoT_LINK_1.0.0/drivers/third_party/ST/STM32L4xx_HAL_Driver/Src\stm32l4xx_hal_uart_ex.c ****      (+) HAL_UARTEx_ConfigNSS API configures the Slave Select input pin (NSS)
 337:C:/Users/SAM.KINUTHIA/.icode/sdk/IoT_LINK_1.0.0/drivers/third_party/ST/STM32L4xx_HAL_Driver/Src\stm32l4xx_hal_uart_ex.c ****      (+) HAL_UARTEx_EnableFifoMode() API enables the FIFO mode
 338:C:/Users/SAM.KINUTHIA/.icode/sdk/IoT_LINK_1.0.0/drivers/third_party/ST/STM32L4xx_HAL_Driver/Src\stm32l4xx_hal_uart_ex.c ****      (+) HAL_UARTEx_DisableFifoMode() API disables the FIFO mode
 339:C:/Users/SAM.KINUTHIA/.icode/sdk/IoT_LINK_1.0.0/drivers/third_party/ST/STM32L4xx_HAL_Driver/Src\stm32l4xx_hal_uart_ex.c ****      (+) HAL_UARTEx_SetTxFifoThreshold() API sets the TX FIFO threshold
 340:C:/Users/SAM.KINUTHIA/.icode/sdk/IoT_LINK_1.0.0/drivers/third_party/ST/STM32L4xx_HAL_Driver/Src\stm32l4xx_hal_uart_ex.c ****      (+) HAL_UARTEx_SetRxFifoThreshold() API sets the RX FIFO threshold
 341:C:/Users/SAM.KINUTHIA/.icode/sdk/IoT_LINK_1.0.0/drivers/third_party/ST/STM32L4xx_HAL_Driver/Src\stm32l4xx_hal_uart_ex.c **** 
 342:C:/Users/SAM.KINUTHIA/.icode/sdk/IoT_LINK_1.0.0/drivers/third_party/ST/STM32L4xx_HAL_Driver/Src\stm32l4xx_hal_uart_ex.c **** @endverbatim
 343:C:/Users/SAM.KINUTHIA/.icode/sdk/IoT_LINK_1.0.0/drivers/third_party/ST/STM32L4xx_HAL_Driver/Src\stm32l4xx_hal_uart_ex.c ****   * @{
 344:C:/Users/SAM.KINUTHIA/.icode/sdk/IoT_LINK_1.0.0/drivers/third_party/ST/STM32L4xx_HAL_Driver/Src\stm32l4xx_hal_uart_ex.c ****   */
 345:C:/Users/SAM.KINUTHIA/.icode/sdk/IoT_LINK_1.0.0/drivers/third_party/ST/STM32L4xx_HAL_Driver/Src\stm32l4xx_hal_uart_ex.c **** 
 346:C:/Users/SAM.KINUTHIA/.icode/sdk/IoT_LINK_1.0.0/drivers/third_party/ST/STM32L4xx_HAL_Driver/Src\stm32l4xx_hal_uart_ex.c **** 
 347:C:/Users/SAM.KINUTHIA/.icode/sdk/IoT_LINK_1.0.0/drivers/third_party/ST/STM32L4xx_HAL_Driver/Src\stm32l4xx_hal_uart_ex.c **** 
 348:C:/Users/SAM.KINUTHIA/.icode/sdk/IoT_LINK_1.0.0/drivers/third_party/ST/STM32L4xx_HAL_Driver/Src\stm32l4xx_hal_uart_ex.c **** 
 349:C:/Users/SAM.KINUTHIA/.icode/sdk/IoT_LINK_1.0.0/drivers/third_party/ST/STM32L4xx_HAL_Driver/Src\stm32l4xx_hal_uart_ex.c **** /**
 350:C:/Users/SAM.KINUTHIA/.icode/sdk/IoT_LINK_1.0.0/drivers/third_party/ST/STM32L4xx_HAL_Driver/Src\stm32l4xx_hal_uart_ex.c ****   * @brief By default in multiprocessor mode, when the wake up method is set
 351:C:/Users/SAM.KINUTHIA/.icode/sdk/IoT_LINK_1.0.0/drivers/third_party/ST/STM32L4xx_HAL_Driver/Src\stm32l4xx_hal_uart_ex.c ****   *        to address mark, the UART handles only 4-bit long addresses detection;
 352:C:/Users/SAM.KINUTHIA/.icode/sdk/IoT_LINK_1.0.0/drivers/third_party/ST/STM32L4xx_HAL_Driver/Src\stm32l4xx_hal_uart_ex.c ****   *        this API allows to enable longer addresses detection (6-, 7- or 8-bit
 353:C:/Users/SAM.KINUTHIA/.icode/sdk/IoT_LINK_1.0.0/drivers/third_party/ST/STM32L4xx_HAL_Driver/Src\stm32l4xx_hal_uart_ex.c ****   *        long).
 354:C:/Users/SAM.KINUTHIA/.icode/sdk/IoT_LINK_1.0.0/drivers/third_party/ST/STM32L4xx_HAL_Driver/Src\stm32l4xx_hal_uart_ex.c ****   * @note  Addresses detection lengths are: 6-bit address detection in 7-bit data mode, 
 355:C:/Users/SAM.KINUTHIA/.icode/sdk/IoT_LINK_1.0.0/drivers/third_party/ST/STM32L4xx_HAL_Driver/Src\stm32l4xx_hal_uart_ex.c ****   *        7-bit address detection in 8-bit data mode, 8-bit address detection in 9-bit data mode.
ARM GAS  C:\Users\SAM~1.KIN\AppData\Local\Temp\ccbOvCcl.s 			page 11


 356:C:/Users/SAM.KINUTHIA/.icode/sdk/IoT_LINK_1.0.0/drivers/third_party/ST/STM32L4xx_HAL_Driver/Src\stm32l4xx_hal_uart_ex.c ****   * @param huart         UART handle.
 357:C:/Users/SAM.KINUTHIA/.icode/sdk/IoT_LINK_1.0.0/drivers/third_party/ST/STM32L4xx_HAL_Driver/Src\stm32l4xx_hal_uart_ex.c ****   * @param AddressLength This parameter can be one of the following values:
 358:C:/Users/SAM.KINUTHIA/.icode/sdk/IoT_LINK_1.0.0/drivers/third_party/ST/STM32L4xx_HAL_Driver/Src\stm32l4xx_hal_uart_ex.c ****   *          @arg @ref UART_ADDRESS_DETECT_4B 4-bit long address
 359:C:/Users/SAM.KINUTHIA/.icode/sdk/IoT_LINK_1.0.0/drivers/third_party/ST/STM32L4xx_HAL_Driver/Src\stm32l4xx_hal_uart_ex.c ****   *          @arg @ref UART_ADDRESS_DETECT_7B 6-, 7- or 8-bit long address
 360:C:/Users/SAM.KINUTHIA/.icode/sdk/IoT_LINK_1.0.0/drivers/third_party/ST/STM32L4xx_HAL_Driver/Src\stm32l4xx_hal_uart_ex.c ****   * @retval HAL status
 361:C:/Users/SAM.KINUTHIA/.icode/sdk/IoT_LINK_1.0.0/drivers/third_party/ST/STM32L4xx_HAL_Driver/Src\stm32l4xx_hal_uart_ex.c ****   */
 362:C:/Users/SAM.KINUTHIA/.icode/sdk/IoT_LINK_1.0.0/drivers/third_party/ST/STM32L4xx_HAL_Driver/Src\stm32l4xx_hal_uart_ex.c **** HAL_StatusTypeDef HAL_MultiProcessorEx_AddressLength_Set(UART_HandleTypeDef *huart, uint32_t Addres
 363:C:/Users/SAM.KINUTHIA/.icode/sdk/IoT_LINK_1.0.0/drivers/third_party/ST/STM32L4xx_HAL_Driver/Src\stm32l4xx_hal_uart_ex.c **** {
 221              		.loc 1 363 0
 222              		.cfi_startproc
 223              		@ args = 0, pretend = 0, frame = 8
 224              		@ frame_needed = 1, uses_anonymous_args = 0
 225 0000 80B5     		push	{r7, lr}
 226              	.LCFI11:
 227              		.cfi_def_cfa_offset 8
 228              		.cfi_offset 7, -8
 229              		.cfi_offset 14, -4
 230 0002 82B0     		sub	sp, sp, #8
 231              	.LCFI12:
 232              		.cfi_def_cfa_offset 16
 233 0004 00AF     		add	r7, sp, #0
 234              	.LCFI13:
 235              		.cfi_def_cfa_register 7
 236 0006 7860     		str	r0, [r7, #4]
 237 0008 3960     		str	r1, [r7]
 364:C:/Users/SAM.KINUTHIA/.icode/sdk/IoT_LINK_1.0.0/drivers/third_party/ST/STM32L4xx_HAL_Driver/Src\stm32l4xx_hal_uart_ex.c ****   /* Check the UART handle allocation */
 365:C:/Users/SAM.KINUTHIA/.icode/sdk/IoT_LINK_1.0.0/drivers/third_party/ST/STM32L4xx_HAL_Driver/Src\stm32l4xx_hal_uart_ex.c ****   if(huart == NULL)
 238              		.loc 1 365 0
 239 000a 7B68     		ldr	r3, [r7, #4]
 240 000c 002B     		cmp	r3, #0
 241 000e 01D1     		bne	.L9
 366:C:/Users/SAM.KINUTHIA/.icode/sdk/IoT_LINK_1.0.0/drivers/third_party/ST/STM32L4xx_HAL_Driver/Src\stm32l4xx_hal_uart_ex.c ****   {
 367:C:/Users/SAM.KINUTHIA/.icode/sdk/IoT_LINK_1.0.0/drivers/third_party/ST/STM32L4xx_HAL_Driver/Src\stm32l4xx_hal_uart_ex.c ****     return HAL_ERROR;
 242              		.loc 1 367 0
 243 0010 0123     		movs	r3, #1
 244 0012 21E0     		b	.L10
 245              	.L9:
 368:C:/Users/SAM.KINUTHIA/.icode/sdk/IoT_LINK_1.0.0/drivers/third_party/ST/STM32L4xx_HAL_Driver/Src\stm32l4xx_hal_uart_ex.c ****   }
 369:C:/Users/SAM.KINUTHIA/.icode/sdk/IoT_LINK_1.0.0/drivers/third_party/ST/STM32L4xx_HAL_Driver/Src\stm32l4xx_hal_uart_ex.c ****   
 370:C:/Users/SAM.KINUTHIA/.icode/sdk/IoT_LINK_1.0.0/drivers/third_party/ST/STM32L4xx_HAL_Driver/Src\stm32l4xx_hal_uart_ex.c ****   /* Check the address length parameter */
 371:C:/Users/SAM.KINUTHIA/.icode/sdk/IoT_LINK_1.0.0/drivers/third_party/ST/STM32L4xx_HAL_Driver/Src\stm32l4xx_hal_uart_ex.c ****   assert_param(IS_UART_ADDRESSLENGTH_DETECT(AddressLength));
 372:C:/Users/SAM.KINUTHIA/.icode/sdk/IoT_LINK_1.0.0/drivers/third_party/ST/STM32L4xx_HAL_Driver/Src\stm32l4xx_hal_uart_ex.c ****   
 373:C:/Users/SAM.KINUTHIA/.icode/sdk/IoT_LINK_1.0.0/drivers/third_party/ST/STM32L4xx_HAL_Driver/Src\stm32l4xx_hal_uart_ex.c ****   huart->gState = HAL_UART_STATE_BUSY;
 246              		.loc 1 373 0
 247 0014 7B68     		ldr	r3, [r7, #4]
 248 0016 2422     		movs	r2, #36
 249 0018 83F87120 		strb	r2, [r3, #113]
 374:C:/Users/SAM.KINUTHIA/.icode/sdk/IoT_LINK_1.0.0/drivers/third_party/ST/STM32L4xx_HAL_Driver/Src\stm32l4xx_hal_uart_ex.c ****   
 375:C:/Users/SAM.KINUTHIA/.icode/sdk/IoT_LINK_1.0.0/drivers/third_party/ST/STM32L4xx_HAL_Driver/Src\stm32l4xx_hal_uart_ex.c ****   /* Disable the Peripheral */
 376:C:/Users/SAM.KINUTHIA/.icode/sdk/IoT_LINK_1.0.0/drivers/third_party/ST/STM32L4xx_HAL_Driver/Src\stm32l4xx_hal_uart_ex.c ****   __HAL_UART_DISABLE(huart);
 250              		.loc 1 376 0
 251 001c 7B68     		ldr	r3, [r7, #4]
 252 001e 1B68     		ldr	r3, [r3]
 253 0020 1A68     		ldr	r2, [r3]
 254 0022 7B68     		ldr	r3, [r7, #4]
 255 0024 1B68     		ldr	r3, [r3]
 256 0026 22F00102 		bic	r2, r2, #1
ARM GAS  C:\Users\SAM~1.KIN\AppData\Local\Temp\ccbOvCcl.s 			page 12


 257 002a 1A60     		str	r2, [r3]
 377:C:/Users/SAM.KINUTHIA/.icode/sdk/IoT_LINK_1.0.0/drivers/third_party/ST/STM32L4xx_HAL_Driver/Src\stm32l4xx_hal_uart_ex.c ****   
 378:C:/Users/SAM.KINUTHIA/.icode/sdk/IoT_LINK_1.0.0/drivers/third_party/ST/STM32L4xx_HAL_Driver/Src\stm32l4xx_hal_uart_ex.c ****   /* Set the address length */
 379:C:/Users/SAM.KINUTHIA/.icode/sdk/IoT_LINK_1.0.0/drivers/third_party/ST/STM32L4xx_HAL_Driver/Src\stm32l4xx_hal_uart_ex.c ****   MODIFY_REG(huart->Instance->CR2, USART_CR2_ADDM7, AddressLength);
 258              		.loc 1 379 0
 259 002c 7B68     		ldr	r3, [r7, #4]
 260 002e 1B68     		ldr	r3, [r3]
 261 0030 5B68     		ldr	r3, [r3, #4]
 262 0032 23F01001 		bic	r1, r3, #16
 263 0036 7B68     		ldr	r3, [r7, #4]
 264 0038 1B68     		ldr	r3, [r3]
 265 003a 3A68     		ldr	r2, [r7]
 266 003c 0A43     		orrs	r2, r2, r1
 267 003e 5A60     		str	r2, [r3, #4]
 380:C:/Users/SAM.KINUTHIA/.icode/sdk/IoT_LINK_1.0.0/drivers/third_party/ST/STM32L4xx_HAL_Driver/Src\stm32l4xx_hal_uart_ex.c ****   
 381:C:/Users/SAM.KINUTHIA/.icode/sdk/IoT_LINK_1.0.0/drivers/third_party/ST/STM32L4xx_HAL_Driver/Src\stm32l4xx_hal_uart_ex.c ****   /* Enable the Peripheral */
 382:C:/Users/SAM.KINUTHIA/.icode/sdk/IoT_LINK_1.0.0/drivers/third_party/ST/STM32L4xx_HAL_Driver/Src\stm32l4xx_hal_uart_ex.c ****   __HAL_UART_ENABLE(huart);
 268              		.loc 1 382 0
 269 0040 7B68     		ldr	r3, [r7, #4]
 270 0042 1B68     		ldr	r3, [r3]
 271 0044 1A68     		ldr	r2, [r3]
 272 0046 7B68     		ldr	r3, [r7, #4]
 273 0048 1B68     		ldr	r3, [r3]
 274 004a 42F00102 		orr	r2, r2, #1
 275 004e 1A60     		str	r2, [r3]
 383:C:/Users/SAM.KINUTHIA/.icode/sdk/IoT_LINK_1.0.0/drivers/third_party/ST/STM32L4xx_HAL_Driver/Src\stm32l4xx_hal_uart_ex.c ****   
 384:C:/Users/SAM.KINUTHIA/.icode/sdk/IoT_LINK_1.0.0/drivers/third_party/ST/STM32L4xx_HAL_Driver/Src\stm32l4xx_hal_uart_ex.c ****   /* TEACK and/or REACK to check before moving huart->gState to Ready */
 385:C:/Users/SAM.KINUTHIA/.icode/sdk/IoT_LINK_1.0.0/drivers/third_party/ST/STM32L4xx_HAL_Driver/Src\stm32l4xx_hal_uart_ex.c ****   return (UART_CheckIdleState(huart));
 276              		.loc 1 385 0
 277 0050 7868     		ldr	r0, [r7, #4]
 278 0052 FFF7FEFF 		bl	UART_CheckIdleState
 279 0056 0346     		mov	r3, r0
 280              	.L10:
 386:C:/Users/SAM.KINUTHIA/.icode/sdk/IoT_LINK_1.0.0/drivers/third_party/ST/STM32L4xx_HAL_Driver/Src\stm32l4xx_hal_uart_ex.c **** }
 281              		.loc 1 386 0
 282 0058 1846     		mov	r0, r3
 283 005a 0837     		adds	r7, r7, #8
 284              	.LCFI14:
 285              		.cfi_def_cfa_offset 8
 286 005c BD46     		mov	sp, r7
 287              	.LCFI15:
 288              		.cfi_def_cfa_register 13
 289              		@ sp needed
 290 005e 80BD     		pop	{r7, pc}
 291              		.cfi_endproc
 292              	.LFE289:
 294              		.section	.text.HAL_UARTEx_StopModeWakeUpSourceConfig,"ax",%progbits
 295              		.align	1
 296              		.global	HAL_UARTEx_StopModeWakeUpSourceConfig
 297              		.syntax unified
 298              		.thumb
 299              		.thumb_func
 300              		.fpu fpv4-sp-d16
 302              	HAL_UARTEx_StopModeWakeUpSourceConfig:
 303              	.LFB290:
 387:C:/Users/SAM.KINUTHIA/.icode/sdk/IoT_LINK_1.0.0/drivers/third_party/ST/STM32L4xx_HAL_Driver/Src\stm32l4xx_hal_uart_ex.c **** 
 388:C:/Users/SAM.KINUTHIA/.icode/sdk/IoT_LINK_1.0.0/drivers/third_party/ST/STM32L4xx_HAL_Driver/Src\stm32l4xx_hal_uart_ex.c **** 
ARM GAS  C:\Users\SAM~1.KIN\AppData\Local\Temp\ccbOvCcl.s 			page 13


 389:C:/Users/SAM.KINUTHIA/.icode/sdk/IoT_LINK_1.0.0/drivers/third_party/ST/STM32L4xx_HAL_Driver/Src\stm32l4xx_hal_uart_ex.c **** /**
 390:C:/Users/SAM.KINUTHIA/.icode/sdk/IoT_LINK_1.0.0/drivers/third_party/ST/STM32L4xx_HAL_Driver/Src\stm32l4xx_hal_uart_ex.c ****   * @brief Set Wakeup from Stop mode interrupt flag selection.
 391:C:/Users/SAM.KINUTHIA/.icode/sdk/IoT_LINK_1.0.0/drivers/third_party/ST/STM32L4xx_HAL_Driver/Src\stm32l4xx_hal_uart_ex.c ****   * @note It is the application responsibility to enable the interrupt used as
 392:C:/Users/SAM.KINUTHIA/.icode/sdk/IoT_LINK_1.0.0/drivers/third_party/ST/STM32L4xx_HAL_Driver/Src\stm32l4xx_hal_uart_ex.c ****   *       usart_wkup interrupt source before entering low-power mode.
 393:C:/Users/SAM.KINUTHIA/.icode/sdk/IoT_LINK_1.0.0/drivers/third_party/ST/STM32L4xx_HAL_Driver/Src\stm32l4xx_hal_uart_ex.c ****   * @param huart           UART handle.
 394:C:/Users/SAM.KINUTHIA/.icode/sdk/IoT_LINK_1.0.0/drivers/third_party/ST/STM32L4xx_HAL_Driver/Src\stm32l4xx_hal_uart_ex.c ****   * @param WakeUpSelection Address match, Start Bit detection or RXNE/RXFNE bit status.
 395:C:/Users/SAM.KINUTHIA/.icode/sdk/IoT_LINK_1.0.0/drivers/third_party/ST/STM32L4xx_HAL_Driver/Src\stm32l4xx_hal_uart_ex.c ****   *          This parameter can be one of the following values:
 396:C:/Users/SAM.KINUTHIA/.icode/sdk/IoT_LINK_1.0.0/drivers/third_party/ST/STM32L4xx_HAL_Driver/Src\stm32l4xx_hal_uart_ex.c ****   *          @arg @ref UART_WAKEUP_ON_ADDRESS
 397:C:/Users/SAM.KINUTHIA/.icode/sdk/IoT_LINK_1.0.0/drivers/third_party/ST/STM32L4xx_HAL_Driver/Src\stm32l4xx_hal_uart_ex.c ****   *          @arg @ref UART_WAKEUP_ON_STARTBIT
 398:C:/Users/SAM.KINUTHIA/.icode/sdk/IoT_LINK_1.0.0/drivers/third_party/ST/STM32L4xx_HAL_Driver/Src\stm32l4xx_hal_uart_ex.c ****   *          @arg @ref UART_WAKEUP_ON_READDATA_NONEMPTY
 399:C:/Users/SAM.KINUTHIA/.icode/sdk/IoT_LINK_1.0.0/drivers/third_party/ST/STM32L4xx_HAL_Driver/Src\stm32l4xx_hal_uart_ex.c ****   * @retval HAL status
 400:C:/Users/SAM.KINUTHIA/.icode/sdk/IoT_LINK_1.0.0/drivers/third_party/ST/STM32L4xx_HAL_Driver/Src\stm32l4xx_hal_uart_ex.c ****   */
 401:C:/Users/SAM.KINUTHIA/.icode/sdk/IoT_LINK_1.0.0/drivers/third_party/ST/STM32L4xx_HAL_Driver/Src\stm32l4xx_hal_uart_ex.c **** HAL_StatusTypeDef HAL_UARTEx_StopModeWakeUpSourceConfig(UART_HandleTypeDef *huart, UART_WakeUpTypeD
 402:C:/Users/SAM.KINUTHIA/.icode/sdk/IoT_LINK_1.0.0/drivers/third_party/ST/STM32L4xx_HAL_Driver/Src\stm32l4xx_hal_uart_ex.c **** {
 304              		.loc 1 402 0
 305              		.cfi_startproc
 306              		@ args = 0, pretend = 0, frame = 24
 307              		@ frame_needed = 1, uses_anonymous_args = 0
 308 0000 80B5     		push	{r7, lr}
 309              	.LCFI16:
 310              		.cfi_def_cfa_offset 8
 311              		.cfi_offset 7, -8
 312              		.cfi_offset 14, -4
 313 0002 88B0     		sub	sp, sp, #32
 314              	.LCFI17:
 315              		.cfi_def_cfa_offset 40
 316 0004 02AF     		add	r7, sp, #8
 317              	.LCFI18:
 318              		.cfi_def_cfa 7, 32
 319 0006 F860     		str	r0, [r7, #12]
 320 0008 3B1D     		adds	r3, r7, #4
 321 000a 83E80600 		stm	r3, {r1, r2}
 403:C:/Users/SAM.KINUTHIA/.icode/sdk/IoT_LINK_1.0.0/drivers/third_party/ST/STM32L4xx_HAL_Driver/Src\stm32l4xx_hal_uart_ex.c ****   HAL_StatusTypeDef status = HAL_OK;
 322              		.loc 1 403 0
 323 000e 0023     		movs	r3, #0
 324 0010 FB75     		strb	r3, [r7, #23]
 404:C:/Users/SAM.KINUTHIA/.icode/sdk/IoT_LINK_1.0.0/drivers/third_party/ST/STM32L4xx_HAL_Driver/Src\stm32l4xx_hal_uart_ex.c ****   uint32_t tickstart = 0;
 325              		.loc 1 404 0
 326 0012 0023     		movs	r3, #0
 327 0014 3B61     		str	r3, [r7, #16]
 405:C:/Users/SAM.KINUTHIA/.icode/sdk/IoT_LINK_1.0.0/drivers/third_party/ST/STM32L4xx_HAL_Driver/Src\stm32l4xx_hal_uart_ex.c ****   
 406:C:/Users/SAM.KINUTHIA/.icode/sdk/IoT_LINK_1.0.0/drivers/third_party/ST/STM32L4xx_HAL_Driver/Src\stm32l4xx_hal_uart_ex.c ****   /* check the wake-up from stop mode UART instance */
 407:C:/Users/SAM.KINUTHIA/.icode/sdk/IoT_LINK_1.0.0/drivers/third_party/ST/STM32L4xx_HAL_Driver/Src\stm32l4xx_hal_uart_ex.c ****   assert_param(IS_UART_WAKEUP_FROMSTOP_INSTANCE(huart->Instance));
 408:C:/Users/SAM.KINUTHIA/.icode/sdk/IoT_LINK_1.0.0/drivers/third_party/ST/STM32L4xx_HAL_Driver/Src\stm32l4xx_hal_uart_ex.c ****   /* check the wake-up selection parameter */
 409:C:/Users/SAM.KINUTHIA/.icode/sdk/IoT_LINK_1.0.0/drivers/third_party/ST/STM32L4xx_HAL_Driver/Src\stm32l4xx_hal_uart_ex.c ****   assert_param(IS_UART_WAKEUP_SELECTION(WakeUpSelection.WakeUpEvent));
 410:C:/Users/SAM.KINUTHIA/.icode/sdk/IoT_LINK_1.0.0/drivers/third_party/ST/STM32L4xx_HAL_Driver/Src\stm32l4xx_hal_uart_ex.c ****   
 411:C:/Users/SAM.KINUTHIA/.icode/sdk/IoT_LINK_1.0.0/drivers/third_party/ST/STM32L4xx_HAL_Driver/Src\stm32l4xx_hal_uart_ex.c ****   /* Process Locked */
 412:C:/Users/SAM.KINUTHIA/.icode/sdk/IoT_LINK_1.0.0/drivers/third_party/ST/STM32L4xx_HAL_Driver/Src\stm32l4xx_hal_uart_ex.c ****   __HAL_LOCK(huart);
 328              		.loc 1 412 0
 329 0016 FB68     		ldr	r3, [r7, #12]
 330 0018 93F87030 		ldrb	r3, [r3, #112]	@ zero_extendqisi2
 331 001c 012B     		cmp	r3, #1
 332 001e 01D1     		bne	.L12
 333              		.loc 1 412 0 is_stmt 0 discriminator 1
 334 0020 0223     		movs	r3, #2
 335 0022 46E0     		b	.L13
 336              	.L12:
ARM GAS  C:\Users\SAM~1.KIN\AppData\Local\Temp\ccbOvCcl.s 			page 14


 337              		.loc 1 412 0 discriminator 2
 338 0024 FB68     		ldr	r3, [r7, #12]
 339 0026 0122     		movs	r2, #1
 340 0028 83F87020 		strb	r2, [r3, #112]
 413:C:/Users/SAM.KINUTHIA/.icode/sdk/IoT_LINK_1.0.0/drivers/third_party/ST/STM32L4xx_HAL_Driver/Src\stm32l4xx_hal_uart_ex.c ****   
 414:C:/Users/SAM.KINUTHIA/.icode/sdk/IoT_LINK_1.0.0/drivers/third_party/ST/STM32L4xx_HAL_Driver/Src\stm32l4xx_hal_uart_ex.c ****   huart->gState = HAL_UART_STATE_BUSY;
 341              		.loc 1 414 0 is_stmt 1 discriminator 2
 342 002c FB68     		ldr	r3, [r7, #12]
 343 002e 2422     		movs	r2, #36
 344 0030 83F87120 		strb	r2, [r3, #113]
 415:C:/Users/SAM.KINUTHIA/.icode/sdk/IoT_LINK_1.0.0/drivers/third_party/ST/STM32L4xx_HAL_Driver/Src\stm32l4xx_hal_uart_ex.c ****   
 416:C:/Users/SAM.KINUTHIA/.icode/sdk/IoT_LINK_1.0.0/drivers/third_party/ST/STM32L4xx_HAL_Driver/Src\stm32l4xx_hal_uart_ex.c ****   /* Disable the Peripheral */
 417:C:/Users/SAM.KINUTHIA/.icode/sdk/IoT_LINK_1.0.0/drivers/third_party/ST/STM32L4xx_HAL_Driver/Src\stm32l4xx_hal_uart_ex.c ****   __HAL_UART_DISABLE(huart);
 345              		.loc 1 417 0 discriminator 2
 346 0034 FB68     		ldr	r3, [r7, #12]
 347 0036 1B68     		ldr	r3, [r3]
 348 0038 1A68     		ldr	r2, [r3]
 349 003a FB68     		ldr	r3, [r7, #12]
 350 003c 1B68     		ldr	r3, [r3]
 351 003e 22F00102 		bic	r2, r2, #1
 352 0042 1A60     		str	r2, [r3]
 418:C:/Users/SAM.KINUTHIA/.icode/sdk/IoT_LINK_1.0.0/drivers/third_party/ST/STM32L4xx_HAL_Driver/Src\stm32l4xx_hal_uart_ex.c ****   
 419:C:/Users/SAM.KINUTHIA/.icode/sdk/IoT_LINK_1.0.0/drivers/third_party/ST/STM32L4xx_HAL_Driver/Src\stm32l4xx_hal_uart_ex.c ****   /* Set the wake-up selection scheme */
 420:C:/Users/SAM.KINUTHIA/.icode/sdk/IoT_LINK_1.0.0/drivers/third_party/ST/STM32L4xx_HAL_Driver/Src\stm32l4xx_hal_uart_ex.c ****   MODIFY_REG(huart->Instance->CR3, USART_CR3_WUS, WakeUpSelection.WakeUpEvent);
 353              		.loc 1 420 0 discriminator 2
 354 0044 FB68     		ldr	r3, [r7, #12]
 355 0046 1B68     		ldr	r3, [r3]
 356 0048 9B68     		ldr	r3, [r3, #8]
 357 004a 23F44011 		bic	r1, r3, #3145728
 358 004e 7A68     		ldr	r2, [r7, #4]
 359 0050 FB68     		ldr	r3, [r7, #12]
 360 0052 1B68     		ldr	r3, [r3]
 361 0054 0A43     		orrs	r2, r2, r1
 362 0056 9A60     		str	r2, [r3, #8]
 421:C:/Users/SAM.KINUTHIA/.icode/sdk/IoT_LINK_1.0.0/drivers/third_party/ST/STM32L4xx_HAL_Driver/Src\stm32l4xx_hal_uart_ex.c ****   
 422:C:/Users/SAM.KINUTHIA/.icode/sdk/IoT_LINK_1.0.0/drivers/third_party/ST/STM32L4xx_HAL_Driver/Src\stm32l4xx_hal_uart_ex.c ****   if (WakeUpSelection.WakeUpEvent == UART_WAKEUP_ON_ADDRESS)
 363              		.loc 1 422 0 discriminator 2
 364 0058 7B68     		ldr	r3, [r7, #4]
 365 005a 002B     		cmp	r3, #0
 366 005c 05D1     		bne	.L14
 423:C:/Users/SAM.KINUTHIA/.icode/sdk/IoT_LINK_1.0.0/drivers/third_party/ST/STM32L4xx_HAL_Driver/Src\stm32l4xx_hal_uart_ex.c ****   {
 424:C:/Users/SAM.KINUTHIA/.icode/sdk/IoT_LINK_1.0.0/drivers/third_party/ST/STM32L4xx_HAL_Driver/Src\stm32l4xx_hal_uart_ex.c ****     UARTEx_Wakeup_AddressConfig(huart, WakeUpSelection);
 367              		.loc 1 424 0
 368 005e 3B1D     		adds	r3, r7, #4
 369 0060 93E80600 		ldm	r3, {r1, r2}
 370 0064 F868     		ldr	r0, [r7, #12]
 371 0066 FFF7FEFF 		bl	UARTEx_Wakeup_AddressConfig
 372              	.L14:
 425:C:/Users/SAM.KINUTHIA/.icode/sdk/IoT_LINK_1.0.0/drivers/third_party/ST/STM32L4xx_HAL_Driver/Src\stm32l4xx_hal_uart_ex.c ****   }
 426:C:/Users/SAM.KINUTHIA/.icode/sdk/IoT_LINK_1.0.0/drivers/third_party/ST/STM32L4xx_HAL_Driver/Src\stm32l4xx_hal_uart_ex.c ****   
 427:C:/Users/SAM.KINUTHIA/.icode/sdk/IoT_LINK_1.0.0/drivers/third_party/ST/STM32L4xx_HAL_Driver/Src\stm32l4xx_hal_uart_ex.c ****   /* Enable the Peripheral */
 428:C:/Users/SAM.KINUTHIA/.icode/sdk/IoT_LINK_1.0.0/drivers/third_party/ST/STM32L4xx_HAL_Driver/Src\stm32l4xx_hal_uart_ex.c ****   __HAL_UART_ENABLE(huart);
 373              		.loc 1 428 0
 374 006a FB68     		ldr	r3, [r7, #12]
 375 006c 1B68     		ldr	r3, [r3]
 376 006e 1A68     		ldr	r2, [r3]
 377 0070 FB68     		ldr	r3, [r7, #12]
ARM GAS  C:\Users\SAM~1.KIN\AppData\Local\Temp\ccbOvCcl.s 			page 15


 378 0072 1B68     		ldr	r3, [r3]
 379 0074 42F00102 		orr	r2, r2, #1
 380 0078 1A60     		str	r2, [r3]
 429:C:/Users/SAM.KINUTHIA/.icode/sdk/IoT_LINK_1.0.0/drivers/third_party/ST/STM32L4xx_HAL_Driver/Src\stm32l4xx_hal_uart_ex.c ****   
 430:C:/Users/SAM.KINUTHIA/.icode/sdk/IoT_LINK_1.0.0/drivers/third_party/ST/STM32L4xx_HAL_Driver/Src\stm32l4xx_hal_uart_ex.c ****   /* Init tickstart for timeout managment*/
 431:C:/Users/SAM.KINUTHIA/.icode/sdk/IoT_LINK_1.0.0/drivers/third_party/ST/STM32L4xx_HAL_Driver/Src\stm32l4xx_hal_uart_ex.c ****   tickstart = HAL_GetTick();
 381              		.loc 1 431 0
 382 007a FFF7FEFF 		bl	HAL_GetTick
 383 007e 3861     		str	r0, [r7, #16]
 432:C:/Users/SAM.KINUTHIA/.icode/sdk/IoT_LINK_1.0.0/drivers/third_party/ST/STM32L4xx_HAL_Driver/Src\stm32l4xx_hal_uart_ex.c ****   
 433:C:/Users/SAM.KINUTHIA/.icode/sdk/IoT_LINK_1.0.0/drivers/third_party/ST/STM32L4xx_HAL_Driver/Src\stm32l4xx_hal_uart_ex.c ****   /* Wait until REACK flag is set */
 434:C:/Users/SAM.KINUTHIA/.icode/sdk/IoT_LINK_1.0.0/drivers/third_party/ST/STM32L4xx_HAL_Driver/Src\stm32l4xx_hal_uart_ex.c ****   if(UART_WaitOnFlagUntilTimeout(huart, USART_ISR_REACK, RESET, tickstart, HAL_UART_TIMEOUT_VALUE) 
 384              		.loc 1 434 0
 385 0080 6FF07E43 		mvn	r3, #-33554432
 386 0084 0093     		str	r3, [sp]
 387 0086 3B69     		ldr	r3, [r7, #16]
 388 0088 0022     		movs	r2, #0
 389 008a 4FF48001 		mov	r1, #4194304
 390 008e F868     		ldr	r0, [r7, #12]
 391 0090 FFF7FEFF 		bl	UART_WaitOnFlagUntilTimeout
 392 0094 0346     		mov	r3, r0
 393 0096 002B     		cmp	r3, #0
 394 0098 02D0     		beq	.L15
 435:C:/Users/SAM.KINUTHIA/.icode/sdk/IoT_LINK_1.0.0/drivers/third_party/ST/STM32L4xx_HAL_Driver/Src\stm32l4xx_hal_uart_ex.c ****   {
 436:C:/Users/SAM.KINUTHIA/.icode/sdk/IoT_LINK_1.0.0/drivers/third_party/ST/STM32L4xx_HAL_Driver/Src\stm32l4xx_hal_uart_ex.c ****     status = HAL_TIMEOUT;
 395              		.loc 1 436 0
 396 009a 0323     		movs	r3, #3
 397 009c FB75     		strb	r3, [r7, #23]
 398 009e 03E0     		b	.L16
 399              	.L15:
 437:C:/Users/SAM.KINUTHIA/.icode/sdk/IoT_LINK_1.0.0/drivers/third_party/ST/STM32L4xx_HAL_Driver/Src\stm32l4xx_hal_uart_ex.c ****   }
 438:C:/Users/SAM.KINUTHIA/.icode/sdk/IoT_LINK_1.0.0/drivers/third_party/ST/STM32L4xx_HAL_Driver/Src\stm32l4xx_hal_uart_ex.c ****   else
 439:C:/Users/SAM.KINUTHIA/.icode/sdk/IoT_LINK_1.0.0/drivers/third_party/ST/STM32L4xx_HAL_Driver/Src\stm32l4xx_hal_uart_ex.c ****   {
 440:C:/Users/SAM.KINUTHIA/.icode/sdk/IoT_LINK_1.0.0/drivers/third_party/ST/STM32L4xx_HAL_Driver/Src\stm32l4xx_hal_uart_ex.c ****     /* Initialize the UART State */
 441:C:/Users/SAM.KINUTHIA/.icode/sdk/IoT_LINK_1.0.0/drivers/third_party/ST/STM32L4xx_HAL_Driver/Src\stm32l4xx_hal_uart_ex.c ****     huart->gState = HAL_UART_STATE_READY;
 400              		.loc 1 441 0
 401 00a0 FB68     		ldr	r3, [r7, #12]
 402 00a2 2022     		movs	r2, #32
 403 00a4 83F87120 		strb	r2, [r3, #113]
 404              	.L16:
 442:C:/Users/SAM.KINUTHIA/.icode/sdk/IoT_LINK_1.0.0/drivers/third_party/ST/STM32L4xx_HAL_Driver/Src\stm32l4xx_hal_uart_ex.c ****   }
 443:C:/Users/SAM.KINUTHIA/.icode/sdk/IoT_LINK_1.0.0/drivers/third_party/ST/STM32L4xx_HAL_Driver/Src\stm32l4xx_hal_uart_ex.c ****   
 444:C:/Users/SAM.KINUTHIA/.icode/sdk/IoT_LINK_1.0.0/drivers/third_party/ST/STM32L4xx_HAL_Driver/Src\stm32l4xx_hal_uart_ex.c ****   /* Process Unlocked */
 445:C:/Users/SAM.KINUTHIA/.icode/sdk/IoT_LINK_1.0.0/drivers/third_party/ST/STM32L4xx_HAL_Driver/Src\stm32l4xx_hal_uart_ex.c ****   __HAL_UNLOCK(huart);
 405              		.loc 1 445 0
 406 00a8 FB68     		ldr	r3, [r7, #12]
 407 00aa 0022     		movs	r2, #0
 408 00ac 83F87020 		strb	r2, [r3, #112]
 446:C:/Users/SAM.KINUTHIA/.icode/sdk/IoT_LINK_1.0.0/drivers/third_party/ST/STM32L4xx_HAL_Driver/Src\stm32l4xx_hal_uart_ex.c ****   
 447:C:/Users/SAM.KINUTHIA/.icode/sdk/IoT_LINK_1.0.0/drivers/third_party/ST/STM32L4xx_HAL_Driver/Src\stm32l4xx_hal_uart_ex.c ****   return status;
 409              		.loc 1 447 0
 410 00b0 FB7D     		ldrb	r3, [r7, #23]	@ zero_extendqisi2
 411              	.L13:
 448:C:/Users/SAM.KINUTHIA/.icode/sdk/IoT_LINK_1.0.0/drivers/third_party/ST/STM32L4xx_HAL_Driver/Src\stm32l4xx_hal_uart_ex.c **** }
 412              		.loc 1 448 0
 413 00b2 1846     		mov	r0, r3
 414 00b4 1837     		adds	r7, r7, #24
ARM GAS  C:\Users\SAM~1.KIN\AppData\Local\Temp\ccbOvCcl.s 			page 16


 415              	.LCFI19:
 416              		.cfi_def_cfa_offset 8
 417 00b6 BD46     		mov	sp, r7
 418              	.LCFI20:
 419              		.cfi_def_cfa_register 13
 420              		@ sp needed
 421 00b8 80BD     		pop	{r7, pc}
 422              		.cfi_endproc
 423              	.LFE290:
 425              		.section	.text.HAL_UARTEx_EnableStopMode,"ax",%progbits
 426              		.align	1
 427              		.global	HAL_UARTEx_EnableStopMode
 428              		.syntax unified
 429              		.thumb
 430              		.thumb_func
 431              		.fpu fpv4-sp-d16
 433              	HAL_UARTEx_EnableStopMode:
 434              	.LFB291:
 449:C:/Users/SAM.KINUTHIA/.icode/sdk/IoT_LINK_1.0.0/drivers/third_party/ST/STM32L4xx_HAL_Driver/Src\stm32l4xx_hal_uart_ex.c **** 
 450:C:/Users/SAM.KINUTHIA/.icode/sdk/IoT_LINK_1.0.0/drivers/third_party/ST/STM32L4xx_HAL_Driver/Src\stm32l4xx_hal_uart_ex.c **** 
 451:C:/Users/SAM.KINUTHIA/.icode/sdk/IoT_LINK_1.0.0/drivers/third_party/ST/STM32L4xx_HAL_Driver/Src\stm32l4xx_hal_uart_ex.c **** /**
 452:C:/Users/SAM.KINUTHIA/.icode/sdk/IoT_LINK_1.0.0/drivers/third_party/ST/STM32L4xx_HAL_Driver/Src\stm32l4xx_hal_uart_ex.c ****   * @brief Enable UART Stop Mode.
 453:C:/Users/SAM.KINUTHIA/.icode/sdk/IoT_LINK_1.0.0/drivers/third_party/ST/STM32L4xx_HAL_Driver/Src\stm32l4xx_hal_uart_ex.c ****   * @note The UART is able to wake up the MCU from Stop 1 mode as long as UART clock is HSI or LSE.
 454:C:/Users/SAM.KINUTHIA/.icode/sdk/IoT_LINK_1.0.0/drivers/third_party/ST/STM32L4xx_HAL_Driver/Src\stm32l4xx_hal_uart_ex.c ****   * @param huart UART handle.
 455:C:/Users/SAM.KINUTHIA/.icode/sdk/IoT_LINK_1.0.0/drivers/third_party/ST/STM32L4xx_HAL_Driver/Src\stm32l4xx_hal_uart_ex.c ****   * @retval HAL status
 456:C:/Users/SAM.KINUTHIA/.icode/sdk/IoT_LINK_1.0.0/drivers/third_party/ST/STM32L4xx_HAL_Driver/Src\stm32l4xx_hal_uart_ex.c ****   */
 457:C:/Users/SAM.KINUTHIA/.icode/sdk/IoT_LINK_1.0.0/drivers/third_party/ST/STM32L4xx_HAL_Driver/Src\stm32l4xx_hal_uart_ex.c **** HAL_StatusTypeDef HAL_UARTEx_EnableStopMode(UART_HandleTypeDef *huart)
 458:C:/Users/SAM.KINUTHIA/.icode/sdk/IoT_LINK_1.0.0/drivers/third_party/ST/STM32L4xx_HAL_Driver/Src\stm32l4xx_hal_uart_ex.c **** {
 435              		.loc 1 458 0
 436              		.cfi_startproc
 437              		@ args = 0, pretend = 0, frame = 8
 438              		@ frame_needed = 1, uses_anonymous_args = 0
 439              		@ link register save eliminated.
 440 0000 80B4     		push	{r7}
 441              	.LCFI21:
 442              		.cfi_def_cfa_offset 4
 443              		.cfi_offset 7, -4
 444 0002 83B0     		sub	sp, sp, #12
 445              	.LCFI22:
 446              		.cfi_def_cfa_offset 16
 447 0004 00AF     		add	r7, sp, #0
 448              	.LCFI23:
 449              		.cfi_def_cfa_register 7
 450 0006 7860     		str	r0, [r7, #4]
 459:C:/Users/SAM.KINUTHIA/.icode/sdk/IoT_LINK_1.0.0/drivers/third_party/ST/STM32L4xx_HAL_Driver/Src\stm32l4xx_hal_uart_ex.c ****   /* Process Locked */
 460:C:/Users/SAM.KINUTHIA/.icode/sdk/IoT_LINK_1.0.0/drivers/third_party/ST/STM32L4xx_HAL_Driver/Src\stm32l4xx_hal_uart_ex.c ****   __HAL_LOCK(huart);
 451              		.loc 1 460 0
 452 0008 7B68     		ldr	r3, [r7, #4]
 453 000a 93F87030 		ldrb	r3, [r3, #112]	@ zero_extendqisi2
 454 000e 012B     		cmp	r3, #1
 455 0010 01D1     		bne	.L18
 456              		.loc 1 460 0 is_stmt 0 discriminator 1
 457 0012 0223     		movs	r3, #2
 458 0014 18E0     		b	.L19
 459              	.L18:
 460              		.loc 1 460 0 discriminator 2
 461 0016 7B68     		ldr	r3, [r7, #4]
ARM GAS  C:\Users\SAM~1.KIN\AppData\Local\Temp\ccbOvCcl.s 			page 17


 462 0018 0122     		movs	r2, #1
 463 001a 83F87020 		strb	r2, [r3, #112]
 461:C:/Users/SAM.KINUTHIA/.icode/sdk/IoT_LINK_1.0.0/drivers/third_party/ST/STM32L4xx_HAL_Driver/Src\stm32l4xx_hal_uart_ex.c ****   
 462:C:/Users/SAM.KINUTHIA/.icode/sdk/IoT_LINK_1.0.0/drivers/third_party/ST/STM32L4xx_HAL_Driver/Src\stm32l4xx_hal_uart_ex.c ****   huart->gState = HAL_UART_STATE_BUSY;
 464              		.loc 1 462 0 is_stmt 1 discriminator 2
 465 001e 7B68     		ldr	r3, [r7, #4]
 466 0020 2422     		movs	r2, #36
 467 0022 83F87120 		strb	r2, [r3, #113]
 463:C:/Users/SAM.KINUTHIA/.icode/sdk/IoT_LINK_1.0.0/drivers/third_party/ST/STM32L4xx_HAL_Driver/Src\stm32l4xx_hal_uart_ex.c ****   
 464:C:/Users/SAM.KINUTHIA/.icode/sdk/IoT_LINK_1.0.0/drivers/third_party/ST/STM32L4xx_HAL_Driver/Src\stm32l4xx_hal_uart_ex.c ****   /* Set UESM bit */
 465:C:/Users/SAM.KINUTHIA/.icode/sdk/IoT_LINK_1.0.0/drivers/third_party/ST/STM32L4xx_HAL_Driver/Src\stm32l4xx_hal_uart_ex.c ****   SET_BIT(huart->Instance->CR1, USART_CR1_UESM);
 468              		.loc 1 465 0 discriminator 2
 469 0026 7B68     		ldr	r3, [r7, #4]
 470 0028 1B68     		ldr	r3, [r3]
 471 002a 1A68     		ldr	r2, [r3]
 472 002c 7B68     		ldr	r3, [r7, #4]
 473 002e 1B68     		ldr	r3, [r3]
 474 0030 42F00202 		orr	r2, r2, #2
 475 0034 1A60     		str	r2, [r3]
 466:C:/Users/SAM.KINUTHIA/.icode/sdk/IoT_LINK_1.0.0/drivers/third_party/ST/STM32L4xx_HAL_Driver/Src\stm32l4xx_hal_uart_ex.c ****   
 467:C:/Users/SAM.KINUTHIA/.icode/sdk/IoT_LINK_1.0.0/drivers/third_party/ST/STM32L4xx_HAL_Driver/Src\stm32l4xx_hal_uart_ex.c ****   huart->gState = HAL_UART_STATE_READY;
 476              		.loc 1 467 0 discriminator 2
 477 0036 7B68     		ldr	r3, [r7, #4]
 478 0038 2022     		movs	r2, #32
 479 003a 83F87120 		strb	r2, [r3, #113]
 468:C:/Users/SAM.KINUTHIA/.icode/sdk/IoT_LINK_1.0.0/drivers/third_party/ST/STM32L4xx_HAL_Driver/Src\stm32l4xx_hal_uart_ex.c ****   
 469:C:/Users/SAM.KINUTHIA/.icode/sdk/IoT_LINK_1.0.0/drivers/third_party/ST/STM32L4xx_HAL_Driver/Src\stm32l4xx_hal_uart_ex.c ****   /* Process Unlocked */
 470:C:/Users/SAM.KINUTHIA/.icode/sdk/IoT_LINK_1.0.0/drivers/third_party/ST/STM32L4xx_HAL_Driver/Src\stm32l4xx_hal_uart_ex.c ****   __HAL_UNLOCK(huart);
 480              		.loc 1 470 0 discriminator 2
 481 003e 7B68     		ldr	r3, [r7, #4]
 482 0040 0022     		movs	r2, #0
 483 0042 83F87020 		strb	r2, [r3, #112]
 471:C:/Users/SAM.KINUTHIA/.icode/sdk/IoT_LINK_1.0.0/drivers/third_party/ST/STM32L4xx_HAL_Driver/Src\stm32l4xx_hal_uart_ex.c ****   
 472:C:/Users/SAM.KINUTHIA/.icode/sdk/IoT_LINK_1.0.0/drivers/third_party/ST/STM32L4xx_HAL_Driver/Src\stm32l4xx_hal_uart_ex.c ****   return HAL_OK;
 484              		.loc 1 472 0 discriminator 2
 485 0046 0023     		movs	r3, #0
 486              	.L19:
 473:C:/Users/SAM.KINUTHIA/.icode/sdk/IoT_LINK_1.0.0/drivers/third_party/ST/STM32L4xx_HAL_Driver/Src\stm32l4xx_hal_uart_ex.c **** }
 487              		.loc 1 473 0
 488 0048 1846     		mov	r0, r3
 489 004a 0C37     		adds	r7, r7, #12
 490              	.LCFI24:
 491              		.cfi_def_cfa_offset 4
 492 004c BD46     		mov	sp, r7
 493              	.LCFI25:
 494              		.cfi_def_cfa_register 13
 495              		@ sp needed
 496 004e 5DF8047B 		ldr	r7, [sp], #4
 497              	.LCFI26:
 498              		.cfi_restore 7
 499              		.cfi_def_cfa_offset 0
 500 0052 7047     		bx	lr
 501              		.cfi_endproc
 502              	.LFE291:
 504              		.section	.text.HAL_UARTEx_DisableStopMode,"ax",%progbits
 505              		.align	1
 506              		.global	HAL_UARTEx_DisableStopMode
ARM GAS  C:\Users\SAM~1.KIN\AppData\Local\Temp\ccbOvCcl.s 			page 18


 507              		.syntax unified
 508              		.thumb
 509              		.thumb_func
 510              		.fpu fpv4-sp-d16
 512              	HAL_UARTEx_DisableStopMode:
 513              	.LFB292:
 474:C:/Users/SAM.KINUTHIA/.icode/sdk/IoT_LINK_1.0.0/drivers/third_party/ST/STM32L4xx_HAL_Driver/Src\stm32l4xx_hal_uart_ex.c **** 
 475:C:/Users/SAM.KINUTHIA/.icode/sdk/IoT_LINK_1.0.0/drivers/third_party/ST/STM32L4xx_HAL_Driver/Src\stm32l4xx_hal_uart_ex.c **** /**
 476:C:/Users/SAM.KINUTHIA/.icode/sdk/IoT_LINK_1.0.0/drivers/third_party/ST/STM32L4xx_HAL_Driver/Src\stm32l4xx_hal_uart_ex.c ****   * @brief Disable UART Stop Mode.
 477:C:/Users/SAM.KINUTHIA/.icode/sdk/IoT_LINK_1.0.0/drivers/third_party/ST/STM32L4xx_HAL_Driver/Src\stm32l4xx_hal_uart_ex.c ****   * @param huart UART handle.
 478:C:/Users/SAM.KINUTHIA/.icode/sdk/IoT_LINK_1.0.0/drivers/third_party/ST/STM32L4xx_HAL_Driver/Src\stm32l4xx_hal_uart_ex.c ****   * @retval HAL status
 479:C:/Users/SAM.KINUTHIA/.icode/sdk/IoT_LINK_1.0.0/drivers/third_party/ST/STM32L4xx_HAL_Driver/Src\stm32l4xx_hal_uart_ex.c ****   */
 480:C:/Users/SAM.KINUTHIA/.icode/sdk/IoT_LINK_1.0.0/drivers/third_party/ST/STM32L4xx_HAL_Driver/Src\stm32l4xx_hal_uart_ex.c **** HAL_StatusTypeDef HAL_UARTEx_DisableStopMode(UART_HandleTypeDef *huart)
 481:C:/Users/SAM.KINUTHIA/.icode/sdk/IoT_LINK_1.0.0/drivers/third_party/ST/STM32L4xx_HAL_Driver/Src\stm32l4xx_hal_uart_ex.c **** {
 514              		.loc 1 481 0
 515              		.cfi_startproc
 516              		@ args = 0, pretend = 0, frame = 8
 517              		@ frame_needed = 1, uses_anonymous_args = 0
 518              		@ link register save eliminated.
 519 0000 80B4     		push	{r7}
 520              	.LCFI27:
 521              		.cfi_def_cfa_offset 4
 522              		.cfi_offset 7, -4
 523 0002 83B0     		sub	sp, sp, #12
 524              	.LCFI28:
 525              		.cfi_def_cfa_offset 16
 526 0004 00AF     		add	r7, sp, #0
 527              	.LCFI29:
 528              		.cfi_def_cfa_register 7
 529 0006 7860     		str	r0, [r7, #4]
 482:C:/Users/SAM.KINUTHIA/.icode/sdk/IoT_LINK_1.0.0/drivers/third_party/ST/STM32L4xx_HAL_Driver/Src\stm32l4xx_hal_uart_ex.c ****   /* Process Locked */
 483:C:/Users/SAM.KINUTHIA/.icode/sdk/IoT_LINK_1.0.0/drivers/third_party/ST/STM32L4xx_HAL_Driver/Src\stm32l4xx_hal_uart_ex.c ****   __HAL_LOCK(huart);
 530              		.loc 1 483 0
 531 0008 7B68     		ldr	r3, [r7, #4]
 532 000a 93F87030 		ldrb	r3, [r3, #112]	@ zero_extendqisi2
 533 000e 012B     		cmp	r3, #1
 534 0010 01D1     		bne	.L21
 535              		.loc 1 483 0 is_stmt 0 discriminator 1
 536 0012 0223     		movs	r3, #2
 537 0014 18E0     		b	.L22
 538              	.L21:
 539              		.loc 1 483 0 discriminator 2
 540 0016 7B68     		ldr	r3, [r7, #4]
 541 0018 0122     		movs	r2, #1
 542 001a 83F87020 		strb	r2, [r3, #112]
 484:C:/Users/SAM.KINUTHIA/.icode/sdk/IoT_LINK_1.0.0/drivers/third_party/ST/STM32L4xx_HAL_Driver/Src\stm32l4xx_hal_uart_ex.c ****   
 485:C:/Users/SAM.KINUTHIA/.icode/sdk/IoT_LINK_1.0.0/drivers/third_party/ST/STM32L4xx_HAL_Driver/Src\stm32l4xx_hal_uart_ex.c ****   huart->gState = HAL_UART_STATE_BUSY;
 543              		.loc 1 485 0 is_stmt 1 discriminator 2
 544 001e 7B68     		ldr	r3, [r7, #4]
 545 0020 2422     		movs	r2, #36
 546 0022 83F87120 		strb	r2, [r3, #113]
 486:C:/Users/SAM.KINUTHIA/.icode/sdk/IoT_LINK_1.0.0/drivers/third_party/ST/STM32L4xx_HAL_Driver/Src\stm32l4xx_hal_uart_ex.c ****   
 487:C:/Users/SAM.KINUTHIA/.icode/sdk/IoT_LINK_1.0.0/drivers/third_party/ST/STM32L4xx_HAL_Driver/Src\stm32l4xx_hal_uart_ex.c ****   /* Clear UESM bit */
 488:C:/Users/SAM.KINUTHIA/.icode/sdk/IoT_LINK_1.0.0/drivers/third_party/ST/STM32L4xx_HAL_Driver/Src\stm32l4xx_hal_uart_ex.c ****   CLEAR_BIT(huart->Instance->CR1, USART_CR1_UESM);
 547              		.loc 1 488 0 discriminator 2
 548 0026 7B68     		ldr	r3, [r7, #4]
 549 0028 1B68     		ldr	r3, [r3]
ARM GAS  C:\Users\SAM~1.KIN\AppData\Local\Temp\ccbOvCcl.s 			page 19


 550 002a 1A68     		ldr	r2, [r3]
 551 002c 7B68     		ldr	r3, [r7, #4]
 552 002e 1B68     		ldr	r3, [r3]
 553 0030 22F00202 		bic	r2, r2, #2
 554 0034 1A60     		str	r2, [r3]
 489:C:/Users/SAM.KINUTHIA/.icode/sdk/IoT_LINK_1.0.0/drivers/third_party/ST/STM32L4xx_HAL_Driver/Src\stm32l4xx_hal_uart_ex.c ****   
 490:C:/Users/SAM.KINUTHIA/.icode/sdk/IoT_LINK_1.0.0/drivers/third_party/ST/STM32L4xx_HAL_Driver/Src\stm32l4xx_hal_uart_ex.c ****   huart->gState = HAL_UART_STATE_READY;
 555              		.loc 1 490 0 discriminator 2
 556 0036 7B68     		ldr	r3, [r7, #4]
 557 0038 2022     		movs	r2, #32
 558 003a 83F87120 		strb	r2, [r3, #113]
 491:C:/Users/SAM.KINUTHIA/.icode/sdk/IoT_LINK_1.0.0/drivers/third_party/ST/STM32L4xx_HAL_Driver/Src\stm32l4xx_hal_uart_ex.c ****   
 492:C:/Users/SAM.KINUTHIA/.icode/sdk/IoT_LINK_1.0.0/drivers/third_party/ST/STM32L4xx_HAL_Driver/Src\stm32l4xx_hal_uart_ex.c ****   /* Process Unlocked */
 493:C:/Users/SAM.KINUTHIA/.icode/sdk/IoT_LINK_1.0.0/drivers/third_party/ST/STM32L4xx_HAL_Driver/Src\stm32l4xx_hal_uart_ex.c ****   __HAL_UNLOCK(huart);
 559              		.loc 1 493 0 discriminator 2
 560 003e 7B68     		ldr	r3, [r7, #4]
 561 0040 0022     		movs	r2, #0
 562 0042 83F87020 		strb	r2, [r3, #112]
 494:C:/Users/SAM.KINUTHIA/.icode/sdk/IoT_LINK_1.0.0/drivers/third_party/ST/STM32L4xx_HAL_Driver/Src\stm32l4xx_hal_uart_ex.c ****   
 495:C:/Users/SAM.KINUTHIA/.icode/sdk/IoT_LINK_1.0.0/drivers/third_party/ST/STM32L4xx_HAL_Driver/Src\stm32l4xx_hal_uart_ex.c ****   return HAL_OK;
 563              		.loc 1 495 0 discriminator 2
 564 0046 0023     		movs	r3, #0
 565              	.L22:
 496:C:/Users/SAM.KINUTHIA/.icode/sdk/IoT_LINK_1.0.0/drivers/third_party/ST/STM32L4xx_HAL_Driver/Src\stm32l4xx_hal_uart_ex.c **** }
 566              		.loc 1 496 0
 567 0048 1846     		mov	r0, r3
 568 004a 0C37     		adds	r7, r7, #12
 569              	.LCFI30:
 570              		.cfi_def_cfa_offset 4
 571 004c BD46     		mov	sp, r7
 572              	.LCFI31:
 573              		.cfi_def_cfa_register 13
 574              		@ sp needed
 575 004e 5DF8047B 		ldr	r7, [sp], #4
 576              	.LCFI32:
 577              		.cfi_restore 7
 578              		.cfi_def_cfa_offset 0
 579 0052 7047     		bx	lr
 580              		.cfi_endproc
 581              	.LFE292:
 583              		.section	.text.UARTEx_Wakeup_AddressConfig,"ax",%progbits
 584              		.align	1
 585              		.syntax unified
 586              		.thumb
 587              		.thumb_func
 588              		.fpu fpv4-sp-d16
 590              	UARTEx_Wakeup_AddressConfig:
 591              	.LFB293:
 497:C:/Users/SAM.KINUTHIA/.icode/sdk/IoT_LINK_1.0.0/drivers/third_party/ST/STM32L4xx_HAL_Driver/Src\stm32l4xx_hal_uart_ex.c **** 
 498:C:/Users/SAM.KINUTHIA/.icode/sdk/IoT_LINK_1.0.0/drivers/third_party/ST/STM32L4xx_HAL_Driver/Src\stm32l4xx_hal_uart_ex.c **** #if defined(USART_CR2_SLVEN)
 499:C:/Users/SAM.KINUTHIA/.icode/sdk/IoT_LINK_1.0.0/drivers/third_party/ST/STM32L4xx_HAL_Driver/Src\stm32l4xx_hal_uart_ex.c **** /**
 500:C:/Users/SAM.KINUTHIA/.icode/sdk/IoT_LINK_1.0.0/drivers/third_party/ST/STM32L4xx_HAL_Driver/Src\stm32l4xx_hal_uart_ex.c ****   * @brief  Enable the SPI slave mode.
 501:C:/Users/SAM.KINUTHIA/.icode/sdk/IoT_LINK_1.0.0/drivers/third_party/ST/STM32L4xx_HAL_Driver/Src\stm32l4xx_hal_uart_ex.c ****   * @note When the UART operates in SPI slave mode, it handles data flow using
 502:C:/Users/SAM.KINUTHIA/.icode/sdk/IoT_LINK_1.0.0/drivers/third_party/ST/STM32L4xx_HAL_Driver/Src\stm32l4xx_hal_uart_ex.c ****   *       the serial interface clock derived from the external SCLK signal
 503:C:/Users/SAM.KINUTHIA/.icode/sdk/IoT_LINK_1.0.0/drivers/third_party/ST/STM32L4xx_HAL_Driver/Src\stm32l4xx_hal_uart_ex.c ****   *       provided by the external master SPI device.
 504:C:/Users/SAM.KINUTHIA/.icode/sdk/IoT_LINK_1.0.0/drivers/third_party/ST/STM32L4xx_HAL_Driver/Src\stm32l4xx_hal_uart_ex.c ****   * @note In SPI slave mode, the UART must be enabled before starting the master
 505:C:/Users/SAM.KINUTHIA/.icode/sdk/IoT_LINK_1.0.0/drivers/third_party/ST/STM32L4xx_HAL_Driver/Src\stm32l4xx_hal_uart_ex.c ****   *       communications (or between frames while the clock is stable). Otherwise,
ARM GAS  C:\Users\SAM~1.KIN\AppData\Local\Temp\ccbOvCcl.s 			page 20


 506:C:/Users/SAM.KINUTHIA/.icode/sdk/IoT_LINK_1.0.0/drivers/third_party/ST/STM32L4xx_HAL_Driver/Src\stm32l4xx_hal_uart_ex.c ****   *       if the UART slave is enabled while the master is in the middle of a
 507:C:/Users/SAM.KINUTHIA/.icode/sdk/IoT_LINK_1.0.0/drivers/third_party/ST/STM32L4xx_HAL_Driver/Src\stm32l4xx_hal_uart_ex.c ****   *       frame, it will become desynchronized with the master. 
 508:C:/Users/SAM.KINUTHIA/.icode/sdk/IoT_LINK_1.0.0/drivers/third_party/ST/STM32L4xx_HAL_Driver/Src\stm32l4xx_hal_uart_ex.c ****   * @note The data register of the slave needs to be ready before the first edge
 509:C:/Users/SAM.KINUTHIA/.icode/sdk/IoT_LINK_1.0.0/drivers/third_party/ST/STM32L4xx_HAL_Driver/Src\stm32l4xx_hal_uart_ex.c ****   *       of the communication clock or before the end of the ongoing communication,
 510:C:/Users/SAM.KINUTHIA/.icode/sdk/IoT_LINK_1.0.0/drivers/third_party/ST/STM32L4xx_HAL_Driver/Src\stm32l4xx_hal_uart_ex.c ****   *       otherwise the SPI slave will transmit zeros.
 511:C:/Users/SAM.KINUTHIA/.icode/sdk/IoT_LINK_1.0.0/drivers/third_party/ST/STM32L4xx_HAL_Driver/Src\stm32l4xx_hal_uart_ex.c ****   * @param huart      UART handle.
 512:C:/Users/SAM.KINUTHIA/.icode/sdk/IoT_LINK_1.0.0/drivers/third_party/ST/STM32L4xx_HAL_Driver/Src\stm32l4xx_hal_uart_ex.c ****   * @retval HAL status
 513:C:/Users/SAM.KINUTHIA/.icode/sdk/IoT_LINK_1.0.0/drivers/third_party/ST/STM32L4xx_HAL_Driver/Src\stm32l4xx_hal_uart_ex.c ****   */
 514:C:/Users/SAM.KINUTHIA/.icode/sdk/IoT_LINK_1.0.0/drivers/third_party/ST/STM32L4xx_HAL_Driver/Src\stm32l4xx_hal_uart_ex.c **** HAL_StatusTypeDef HAL_UARTEx_EnableSlaveMode(UART_HandleTypeDef *huart)
 515:C:/Users/SAM.KINUTHIA/.icode/sdk/IoT_LINK_1.0.0/drivers/third_party/ST/STM32L4xx_HAL_Driver/Src\stm32l4xx_hal_uart_ex.c **** {
 516:C:/Users/SAM.KINUTHIA/.icode/sdk/IoT_LINK_1.0.0/drivers/third_party/ST/STM32L4xx_HAL_Driver/Src\stm32l4xx_hal_uart_ex.c ****   uint32_t tmpcr1 = 0;
 517:C:/Users/SAM.KINUTHIA/.icode/sdk/IoT_LINK_1.0.0/drivers/third_party/ST/STM32L4xx_HAL_Driver/Src\stm32l4xx_hal_uart_ex.c **** 
 518:C:/Users/SAM.KINUTHIA/.icode/sdk/IoT_LINK_1.0.0/drivers/third_party/ST/STM32L4xx_HAL_Driver/Src\stm32l4xx_hal_uart_ex.c ****   /* Check parameters */
 519:C:/Users/SAM.KINUTHIA/.icode/sdk/IoT_LINK_1.0.0/drivers/third_party/ST/STM32L4xx_HAL_Driver/Src\stm32l4xx_hal_uart_ex.c ****   assert_param(IS_UART_SPI_SLAVE_INSTANCE(huart->Instance));
 520:C:/Users/SAM.KINUTHIA/.icode/sdk/IoT_LINK_1.0.0/drivers/third_party/ST/STM32L4xx_HAL_Driver/Src\stm32l4xx_hal_uart_ex.c ****   
 521:C:/Users/SAM.KINUTHIA/.icode/sdk/IoT_LINK_1.0.0/drivers/third_party/ST/STM32L4xx_HAL_Driver/Src\stm32l4xx_hal_uart_ex.c ****   /* Process Locked */
 522:C:/Users/SAM.KINUTHIA/.icode/sdk/IoT_LINK_1.0.0/drivers/third_party/ST/STM32L4xx_HAL_Driver/Src\stm32l4xx_hal_uart_ex.c ****   __HAL_LOCK(huart);
 523:C:/Users/SAM.KINUTHIA/.icode/sdk/IoT_LINK_1.0.0/drivers/third_party/ST/STM32L4xx_HAL_Driver/Src\stm32l4xx_hal_uart_ex.c ****   
 524:C:/Users/SAM.KINUTHIA/.icode/sdk/IoT_LINK_1.0.0/drivers/third_party/ST/STM32L4xx_HAL_Driver/Src\stm32l4xx_hal_uart_ex.c ****   huart->gState = HAL_UART_STATE_BUSY;
 525:C:/Users/SAM.KINUTHIA/.icode/sdk/IoT_LINK_1.0.0/drivers/third_party/ST/STM32L4xx_HAL_Driver/Src\stm32l4xx_hal_uart_ex.c ****   
 526:C:/Users/SAM.KINUTHIA/.icode/sdk/IoT_LINK_1.0.0/drivers/third_party/ST/STM32L4xx_HAL_Driver/Src\stm32l4xx_hal_uart_ex.c ****   /* Save actual UART configuration */
 527:C:/Users/SAM.KINUTHIA/.icode/sdk/IoT_LINK_1.0.0/drivers/third_party/ST/STM32L4xx_HAL_Driver/Src\stm32l4xx_hal_uart_ex.c ****   tmpcr1 = READ_REG(huart->Instance->CR1);
 528:C:/Users/SAM.KINUTHIA/.icode/sdk/IoT_LINK_1.0.0/drivers/third_party/ST/STM32L4xx_HAL_Driver/Src\stm32l4xx_hal_uart_ex.c ****   
 529:C:/Users/SAM.KINUTHIA/.icode/sdk/IoT_LINK_1.0.0/drivers/third_party/ST/STM32L4xx_HAL_Driver/Src\stm32l4xx_hal_uart_ex.c ****   /* Disable UART */
 530:C:/Users/SAM.KINUTHIA/.icode/sdk/IoT_LINK_1.0.0/drivers/third_party/ST/STM32L4xx_HAL_Driver/Src\stm32l4xx_hal_uart_ex.c ****   __HAL_UART_DISABLE(huart);
 531:C:/Users/SAM.KINUTHIA/.icode/sdk/IoT_LINK_1.0.0/drivers/third_party/ST/STM32L4xx_HAL_Driver/Src\stm32l4xx_hal_uart_ex.c ****   
 532:C:/Users/SAM.KINUTHIA/.icode/sdk/IoT_LINK_1.0.0/drivers/third_party/ST/STM32L4xx_HAL_Driver/Src\stm32l4xx_hal_uart_ex.c ****   /* In SPI slave mode mode, the following bits must be kept cleared:
 533:C:/Users/SAM.KINUTHIA/.icode/sdk/IoT_LINK_1.0.0/drivers/third_party/ST/STM32L4xx_HAL_Driver/Src\stm32l4xx_hal_uart_ex.c ****   - LINEN and CLKEN bit in the USART_CR2 register
 534:C:/Users/SAM.KINUTHIA/.icode/sdk/IoT_LINK_1.0.0/drivers/third_party/ST/STM32L4xx_HAL_Driver/Src\stm32l4xx_hal_uart_ex.c ****   - HDSEL, SCEN and IREN bits in the USART_CR3 register.*/
 535:C:/Users/SAM.KINUTHIA/.icode/sdk/IoT_LINK_1.0.0/drivers/third_party/ST/STM32L4xx_HAL_Driver/Src\stm32l4xx_hal_uart_ex.c ****   CLEAR_BIT(huart->Instance->CR2, (USART_CR2_LINEN | USART_CR2_CLKEN));
 536:C:/Users/SAM.KINUTHIA/.icode/sdk/IoT_LINK_1.0.0/drivers/third_party/ST/STM32L4xx_HAL_Driver/Src\stm32l4xx_hal_uart_ex.c ****   CLEAR_BIT(huart->Instance->CR3, (USART_CR3_SCEN | USART_CR3_HDSEL | USART_CR3_IREN));
 537:C:/Users/SAM.KINUTHIA/.icode/sdk/IoT_LINK_1.0.0/drivers/third_party/ST/STM32L4xx_HAL_Driver/Src\stm32l4xx_hal_uart_ex.c ****   
 538:C:/Users/SAM.KINUTHIA/.icode/sdk/IoT_LINK_1.0.0/drivers/third_party/ST/STM32L4xx_HAL_Driver/Src\stm32l4xx_hal_uart_ex.c ****   /* Enable SPI slave mode */
 539:C:/Users/SAM.KINUTHIA/.icode/sdk/IoT_LINK_1.0.0/drivers/third_party/ST/STM32L4xx_HAL_Driver/Src\stm32l4xx_hal_uart_ex.c ****   SET_BIT(huart->Instance->CR2, USART_CR2_SLVEN);
 540:C:/Users/SAM.KINUTHIA/.icode/sdk/IoT_LINK_1.0.0/drivers/third_party/ST/STM32L4xx_HAL_Driver/Src\stm32l4xx_hal_uart_ex.c ****   
 541:C:/Users/SAM.KINUTHIA/.icode/sdk/IoT_LINK_1.0.0/drivers/third_party/ST/STM32L4xx_HAL_Driver/Src\stm32l4xx_hal_uart_ex.c ****   /* Restore UART configuration */
 542:C:/Users/SAM.KINUTHIA/.icode/sdk/IoT_LINK_1.0.0/drivers/third_party/ST/STM32L4xx_HAL_Driver/Src\stm32l4xx_hal_uart_ex.c ****   WRITE_REG(huart->Instance->CR1, tmpcr1);
 543:C:/Users/SAM.KINUTHIA/.icode/sdk/IoT_LINK_1.0.0/drivers/third_party/ST/STM32L4xx_HAL_Driver/Src\stm32l4xx_hal_uart_ex.c ****  
 544:C:/Users/SAM.KINUTHIA/.icode/sdk/IoT_LINK_1.0.0/drivers/third_party/ST/STM32L4xx_HAL_Driver/Src\stm32l4xx_hal_uart_ex.c ****   huart->SlaveMode = UART_SLAVEMODE_ENABLE;
 545:C:/Users/SAM.KINUTHIA/.icode/sdk/IoT_LINK_1.0.0/drivers/third_party/ST/STM32L4xx_HAL_Driver/Src\stm32l4xx_hal_uart_ex.c ****   
 546:C:/Users/SAM.KINUTHIA/.icode/sdk/IoT_LINK_1.0.0/drivers/third_party/ST/STM32L4xx_HAL_Driver/Src\stm32l4xx_hal_uart_ex.c ****   huart->gState = HAL_UART_STATE_READY;
 547:C:/Users/SAM.KINUTHIA/.icode/sdk/IoT_LINK_1.0.0/drivers/third_party/ST/STM32L4xx_HAL_Driver/Src\stm32l4xx_hal_uart_ex.c ****   
 548:C:/Users/SAM.KINUTHIA/.icode/sdk/IoT_LINK_1.0.0/drivers/third_party/ST/STM32L4xx_HAL_Driver/Src\stm32l4xx_hal_uart_ex.c ****   /* Enable UART */
 549:C:/Users/SAM.KINUTHIA/.icode/sdk/IoT_LINK_1.0.0/drivers/third_party/ST/STM32L4xx_HAL_Driver/Src\stm32l4xx_hal_uart_ex.c ****   __HAL_UART_ENABLE(huart);
 550:C:/Users/SAM.KINUTHIA/.icode/sdk/IoT_LINK_1.0.0/drivers/third_party/ST/STM32L4xx_HAL_Driver/Src\stm32l4xx_hal_uart_ex.c ****   
 551:C:/Users/SAM.KINUTHIA/.icode/sdk/IoT_LINK_1.0.0/drivers/third_party/ST/STM32L4xx_HAL_Driver/Src\stm32l4xx_hal_uart_ex.c ****   /* Process Unlocked */
 552:C:/Users/SAM.KINUTHIA/.icode/sdk/IoT_LINK_1.0.0/drivers/third_party/ST/STM32L4xx_HAL_Driver/Src\stm32l4xx_hal_uart_ex.c ****   __HAL_UNLOCK(huart);
 553:C:/Users/SAM.KINUTHIA/.icode/sdk/IoT_LINK_1.0.0/drivers/third_party/ST/STM32L4xx_HAL_Driver/Src\stm32l4xx_hal_uart_ex.c ****   
 554:C:/Users/SAM.KINUTHIA/.icode/sdk/IoT_LINK_1.0.0/drivers/third_party/ST/STM32L4xx_HAL_Driver/Src\stm32l4xx_hal_uart_ex.c ****   return HAL_OK;  
 555:C:/Users/SAM.KINUTHIA/.icode/sdk/IoT_LINK_1.0.0/drivers/third_party/ST/STM32L4xx_HAL_Driver/Src\stm32l4xx_hal_uart_ex.c **** }
 556:C:/Users/SAM.KINUTHIA/.icode/sdk/IoT_LINK_1.0.0/drivers/third_party/ST/STM32L4xx_HAL_Driver/Src\stm32l4xx_hal_uart_ex.c **** 
 557:C:/Users/SAM.KINUTHIA/.icode/sdk/IoT_LINK_1.0.0/drivers/third_party/ST/STM32L4xx_HAL_Driver/Src\stm32l4xx_hal_uart_ex.c **** /**
 558:C:/Users/SAM.KINUTHIA/.icode/sdk/IoT_LINK_1.0.0/drivers/third_party/ST/STM32L4xx_HAL_Driver/Src\stm32l4xx_hal_uart_ex.c ****   * @brief  Disable the SPI slave mode.
 559:C:/Users/SAM.KINUTHIA/.icode/sdk/IoT_LINK_1.0.0/drivers/third_party/ST/STM32L4xx_HAL_Driver/Src\stm32l4xx_hal_uart_ex.c ****   * @param huart      UART handle.
 560:C:/Users/SAM.KINUTHIA/.icode/sdk/IoT_LINK_1.0.0/drivers/third_party/ST/STM32L4xx_HAL_Driver/Src\stm32l4xx_hal_uart_ex.c ****   * @retval HAL status
 561:C:/Users/SAM.KINUTHIA/.icode/sdk/IoT_LINK_1.0.0/drivers/third_party/ST/STM32L4xx_HAL_Driver/Src\stm32l4xx_hal_uart_ex.c ****   */
 562:C:/Users/SAM.KINUTHIA/.icode/sdk/IoT_LINK_1.0.0/drivers/third_party/ST/STM32L4xx_HAL_Driver/Src\stm32l4xx_hal_uart_ex.c **** HAL_StatusTypeDef HAL_UARTEx_DisableSlaveMode(UART_HandleTypeDef *huart)
ARM GAS  C:\Users\SAM~1.KIN\AppData\Local\Temp\ccbOvCcl.s 			page 21


 563:C:/Users/SAM.KINUTHIA/.icode/sdk/IoT_LINK_1.0.0/drivers/third_party/ST/STM32L4xx_HAL_Driver/Src\stm32l4xx_hal_uart_ex.c **** {
 564:C:/Users/SAM.KINUTHIA/.icode/sdk/IoT_LINK_1.0.0/drivers/third_party/ST/STM32L4xx_HAL_Driver/Src\stm32l4xx_hal_uart_ex.c ****   uint32_t tmpcr1 = 0;
 565:C:/Users/SAM.KINUTHIA/.icode/sdk/IoT_LINK_1.0.0/drivers/third_party/ST/STM32L4xx_HAL_Driver/Src\stm32l4xx_hal_uart_ex.c **** 
 566:C:/Users/SAM.KINUTHIA/.icode/sdk/IoT_LINK_1.0.0/drivers/third_party/ST/STM32L4xx_HAL_Driver/Src\stm32l4xx_hal_uart_ex.c ****   /* Check parameters */
 567:C:/Users/SAM.KINUTHIA/.icode/sdk/IoT_LINK_1.0.0/drivers/third_party/ST/STM32L4xx_HAL_Driver/Src\stm32l4xx_hal_uart_ex.c ****   assert_param(IS_UART_SPI_SLAVE_INSTANCE(huart->Instance));
 568:C:/Users/SAM.KINUTHIA/.icode/sdk/IoT_LINK_1.0.0/drivers/third_party/ST/STM32L4xx_HAL_Driver/Src\stm32l4xx_hal_uart_ex.c ****   
 569:C:/Users/SAM.KINUTHIA/.icode/sdk/IoT_LINK_1.0.0/drivers/third_party/ST/STM32L4xx_HAL_Driver/Src\stm32l4xx_hal_uart_ex.c ****   /* Process Locked */
 570:C:/Users/SAM.KINUTHIA/.icode/sdk/IoT_LINK_1.0.0/drivers/third_party/ST/STM32L4xx_HAL_Driver/Src\stm32l4xx_hal_uart_ex.c ****   __HAL_LOCK(huart);
 571:C:/Users/SAM.KINUTHIA/.icode/sdk/IoT_LINK_1.0.0/drivers/third_party/ST/STM32L4xx_HAL_Driver/Src\stm32l4xx_hal_uart_ex.c ****   
 572:C:/Users/SAM.KINUTHIA/.icode/sdk/IoT_LINK_1.0.0/drivers/third_party/ST/STM32L4xx_HAL_Driver/Src\stm32l4xx_hal_uart_ex.c ****   huart->gState = HAL_UART_STATE_BUSY;
 573:C:/Users/SAM.KINUTHIA/.icode/sdk/IoT_LINK_1.0.0/drivers/third_party/ST/STM32L4xx_HAL_Driver/Src\stm32l4xx_hal_uart_ex.c ****   
 574:C:/Users/SAM.KINUTHIA/.icode/sdk/IoT_LINK_1.0.0/drivers/third_party/ST/STM32L4xx_HAL_Driver/Src\stm32l4xx_hal_uart_ex.c ****   /* Save actual UART configuration */
 575:C:/Users/SAM.KINUTHIA/.icode/sdk/IoT_LINK_1.0.0/drivers/third_party/ST/STM32L4xx_HAL_Driver/Src\stm32l4xx_hal_uart_ex.c ****   tmpcr1 = READ_REG(huart->Instance->CR1);
 576:C:/Users/SAM.KINUTHIA/.icode/sdk/IoT_LINK_1.0.0/drivers/third_party/ST/STM32L4xx_HAL_Driver/Src\stm32l4xx_hal_uart_ex.c ****   
 577:C:/Users/SAM.KINUTHIA/.icode/sdk/IoT_LINK_1.0.0/drivers/third_party/ST/STM32L4xx_HAL_Driver/Src\stm32l4xx_hal_uart_ex.c ****   /* Disable UART */
 578:C:/Users/SAM.KINUTHIA/.icode/sdk/IoT_LINK_1.0.0/drivers/third_party/ST/STM32L4xx_HAL_Driver/Src\stm32l4xx_hal_uart_ex.c ****   __HAL_UART_DISABLE(huart);
 579:C:/Users/SAM.KINUTHIA/.icode/sdk/IoT_LINK_1.0.0/drivers/third_party/ST/STM32L4xx_HAL_Driver/Src\stm32l4xx_hal_uart_ex.c **** 
 580:C:/Users/SAM.KINUTHIA/.icode/sdk/IoT_LINK_1.0.0/drivers/third_party/ST/STM32L4xx_HAL_Driver/Src\stm32l4xx_hal_uart_ex.c ****   /* Disable SPI slave mode */
 581:C:/Users/SAM.KINUTHIA/.icode/sdk/IoT_LINK_1.0.0/drivers/third_party/ST/STM32L4xx_HAL_Driver/Src\stm32l4xx_hal_uart_ex.c ****   CLEAR_BIT(huart->Instance->CR2, USART_CR2_SLVEN);
 582:C:/Users/SAM.KINUTHIA/.icode/sdk/IoT_LINK_1.0.0/drivers/third_party/ST/STM32L4xx_HAL_Driver/Src\stm32l4xx_hal_uart_ex.c ****   
 583:C:/Users/SAM.KINUTHIA/.icode/sdk/IoT_LINK_1.0.0/drivers/third_party/ST/STM32L4xx_HAL_Driver/Src\stm32l4xx_hal_uart_ex.c ****   /* Restore UART configuration */
 584:C:/Users/SAM.KINUTHIA/.icode/sdk/IoT_LINK_1.0.0/drivers/third_party/ST/STM32L4xx_HAL_Driver/Src\stm32l4xx_hal_uart_ex.c ****   WRITE_REG(huart->Instance->CR1, tmpcr1);
 585:C:/Users/SAM.KINUTHIA/.icode/sdk/IoT_LINK_1.0.0/drivers/third_party/ST/STM32L4xx_HAL_Driver/Src\stm32l4xx_hal_uart_ex.c **** 
 586:C:/Users/SAM.KINUTHIA/.icode/sdk/IoT_LINK_1.0.0/drivers/third_party/ST/STM32L4xx_HAL_Driver/Src\stm32l4xx_hal_uart_ex.c ****   huart->SlaveMode = UART_SLAVEMODE_ENABLE;
 587:C:/Users/SAM.KINUTHIA/.icode/sdk/IoT_LINK_1.0.0/drivers/third_party/ST/STM32L4xx_HAL_Driver/Src\stm32l4xx_hal_uart_ex.c ****   
 588:C:/Users/SAM.KINUTHIA/.icode/sdk/IoT_LINK_1.0.0/drivers/third_party/ST/STM32L4xx_HAL_Driver/Src\stm32l4xx_hal_uart_ex.c ****   huart->gState = HAL_UART_STATE_READY;
 589:C:/Users/SAM.KINUTHIA/.icode/sdk/IoT_LINK_1.0.0/drivers/third_party/ST/STM32L4xx_HAL_Driver/Src\stm32l4xx_hal_uart_ex.c ****   
 590:C:/Users/SAM.KINUTHIA/.icode/sdk/IoT_LINK_1.0.0/drivers/third_party/ST/STM32L4xx_HAL_Driver/Src\stm32l4xx_hal_uart_ex.c ****   /* Process Unlocked */
 591:C:/Users/SAM.KINUTHIA/.icode/sdk/IoT_LINK_1.0.0/drivers/third_party/ST/STM32L4xx_HAL_Driver/Src\stm32l4xx_hal_uart_ex.c ****   __HAL_UNLOCK(huart);
 592:C:/Users/SAM.KINUTHIA/.icode/sdk/IoT_LINK_1.0.0/drivers/third_party/ST/STM32L4xx_HAL_Driver/Src\stm32l4xx_hal_uart_ex.c ****   
 593:C:/Users/SAM.KINUTHIA/.icode/sdk/IoT_LINK_1.0.0/drivers/third_party/ST/STM32L4xx_HAL_Driver/Src\stm32l4xx_hal_uart_ex.c ****   return HAL_OK;  
 594:C:/Users/SAM.KINUTHIA/.icode/sdk/IoT_LINK_1.0.0/drivers/third_party/ST/STM32L4xx_HAL_Driver/Src\stm32l4xx_hal_uart_ex.c **** }
 595:C:/Users/SAM.KINUTHIA/.icode/sdk/IoT_LINK_1.0.0/drivers/third_party/ST/STM32L4xx_HAL_Driver/Src\stm32l4xx_hal_uart_ex.c **** 
 596:C:/Users/SAM.KINUTHIA/.icode/sdk/IoT_LINK_1.0.0/drivers/third_party/ST/STM32L4xx_HAL_Driver/Src\stm32l4xx_hal_uart_ex.c **** /**
 597:C:/Users/SAM.KINUTHIA/.icode/sdk/IoT_LINK_1.0.0/drivers/third_party/ST/STM32L4xx_HAL_Driver/Src\stm32l4xx_hal_uart_ex.c ****   * @brief  Configure the Slave Select input pin (NSS).
 598:C:/Users/SAM.KINUTHIA/.icode/sdk/IoT_LINK_1.0.0/drivers/third_party/ST/STM32L4xx_HAL_Driver/Src\stm32l4xx_hal_uart_ex.c ****   * @note Software NSS management: SPI slave will always be selected and NSS
 599:C:/Users/SAM.KINUTHIA/.icode/sdk/IoT_LINK_1.0.0/drivers/third_party/ST/STM32L4xx_HAL_Driver/Src\stm32l4xx_hal_uart_ex.c ****   *       input pin will be ignored.
 600:C:/Users/SAM.KINUTHIA/.icode/sdk/IoT_LINK_1.0.0/drivers/third_party/ST/STM32L4xx_HAL_Driver/Src\stm32l4xx_hal_uart_ex.c ****   * @note Hardware NSS management: the SPI slave selection depends on NSS
 601:C:/Users/SAM.KINUTHIA/.icode/sdk/IoT_LINK_1.0.0/drivers/third_party/ST/STM32L4xx_HAL_Driver/Src\stm32l4xx_hal_uart_ex.c ****   *       input pin. The slave is selected when NSS is low and deselected when
 602:C:/Users/SAM.KINUTHIA/.icode/sdk/IoT_LINK_1.0.0/drivers/third_party/ST/STM32L4xx_HAL_Driver/Src\stm32l4xx_hal_uart_ex.c ****   *       NSS is high.
 603:C:/Users/SAM.KINUTHIA/.icode/sdk/IoT_LINK_1.0.0/drivers/third_party/ST/STM32L4xx_HAL_Driver/Src\stm32l4xx_hal_uart_ex.c ****   * @param huart      UART handle.
 604:C:/Users/SAM.KINUTHIA/.icode/sdk/IoT_LINK_1.0.0/drivers/third_party/ST/STM32L4xx_HAL_Driver/Src\stm32l4xx_hal_uart_ex.c ****   * @param NSSConfig   NSS configuration.
 605:C:/Users/SAM.KINUTHIA/.icode/sdk/IoT_LINK_1.0.0/drivers/third_party/ST/STM32L4xx_HAL_Driver/Src\stm32l4xx_hal_uart_ex.c ****   *          This parameter can be one of the following values:
 606:C:/Users/SAM.KINUTHIA/.icode/sdk/IoT_LINK_1.0.0/drivers/third_party/ST/STM32L4xx_HAL_Driver/Src\stm32l4xx_hal_uart_ex.c ****   *            @arg @ref UART_NSS_HARD
 607:C:/Users/SAM.KINUTHIA/.icode/sdk/IoT_LINK_1.0.0/drivers/third_party/ST/STM32L4xx_HAL_Driver/Src\stm32l4xx_hal_uart_ex.c ****   *            @arg @ref UART_NSS_SOFT
 608:C:/Users/SAM.KINUTHIA/.icode/sdk/IoT_LINK_1.0.0/drivers/third_party/ST/STM32L4xx_HAL_Driver/Src\stm32l4xx_hal_uart_ex.c ****   * @retval HAL status
 609:C:/Users/SAM.KINUTHIA/.icode/sdk/IoT_LINK_1.0.0/drivers/third_party/ST/STM32L4xx_HAL_Driver/Src\stm32l4xx_hal_uart_ex.c ****   */
 610:C:/Users/SAM.KINUTHIA/.icode/sdk/IoT_LINK_1.0.0/drivers/third_party/ST/STM32L4xx_HAL_Driver/Src\stm32l4xx_hal_uart_ex.c **** HAL_StatusTypeDef HAL_UARTEx_ConfigNSS(UART_HandleTypeDef *huart, uint32_t NSSConfig)
 611:C:/Users/SAM.KINUTHIA/.icode/sdk/IoT_LINK_1.0.0/drivers/third_party/ST/STM32L4xx_HAL_Driver/Src\stm32l4xx_hal_uart_ex.c **** {
 612:C:/Users/SAM.KINUTHIA/.icode/sdk/IoT_LINK_1.0.0/drivers/third_party/ST/STM32L4xx_HAL_Driver/Src\stm32l4xx_hal_uart_ex.c ****   uint32_t tmpcr1 = 0;
 613:C:/Users/SAM.KINUTHIA/.icode/sdk/IoT_LINK_1.0.0/drivers/third_party/ST/STM32L4xx_HAL_Driver/Src\stm32l4xx_hal_uart_ex.c **** 
 614:C:/Users/SAM.KINUTHIA/.icode/sdk/IoT_LINK_1.0.0/drivers/third_party/ST/STM32L4xx_HAL_Driver/Src\stm32l4xx_hal_uart_ex.c ****   /* Check parameters */
 615:C:/Users/SAM.KINUTHIA/.icode/sdk/IoT_LINK_1.0.0/drivers/third_party/ST/STM32L4xx_HAL_Driver/Src\stm32l4xx_hal_uart_ex.c ****   assert_param(IS_UART_SPI_SLAVE_INSTANCE(huart->Instance));
 616:C:/Users/SAM.KINUTHIA/.icode/sdk/IoT_LINK_1.0.0/drivers/third_party/ST/STM32L4xx_HAL_Driver/Src\stm32l4xx_hal_uart_ex.c ****   assert_param(IS_UART_NSS(NSSConfig));
 617:C:/Users/SAM.KINUTHIA/.icode/sdk/IoT_LINK_1.0.0/drivers/third_party/ST/STM32L4xx_HAL_Driver/Src\stm32l4xx_hal_uart_ex.c ****   
 618:C:/Users/SAM.KINUTHIA/.icode/sdk/IoT_LINK_1.0.0/drivers/third_party/ST/STM32L4xx_HAL_Driver/Src\stm32l4xx_hal_uart_ex.c ****   /* Process Locked */
 619:C:/Users/SAM.KINUTHIA/.icode/sdk/IoT_LINK_1.0.0/drivers/third_party/ST/STM32L4xx_HAL_Driver/Src\stm32l4xx_hal_uart_ex.c ****   __HAL_LOCK(huart);
ARM GAS  C:\Users\SAM~1.KIN\AppData\Local\Temp\ccbOvCcl.s 			page 22


 620:C:/Users/SAM.KINUTHIA/.icode/sdk/IoT_LINK_1.0.0/drivers/third_party/ST/STM32L4xx_HAL_Driver/Src\stm32l4xx_hal_uart_ex.c ****   
 621:C:/Users/SAM.KINUTHIA/.icode/sdk/IoT_LINK_1.0.0/drivers/third_party/ST/STM32L4xx_HAL_Driver/Src\stm32l4xx_hal_uart_ex.c ****   huart->gState = HAL_UART_STATE_BUSY;
 622:C:/Users/SAM.KINUTHIA/.icode/sdk/IoT_LINK_1.0.0/drivers/third_party/ST/STM32L4xx_HAL_Driver/Src\stm32l4xx_hal_uart_ex.c ****   
 623:C:/Users/SAM.KINUTHIA/.icode/sdk/IoT_LINK_1.0.0/drivers/third_party/ST/STM32L4xx_HAL_Driver/Src\stm32l4xx_hal_uart_ex.c ****   /* Save actual UART configuration */
 624:C:/Users/SAM.KINUTHIA/.icode/sdk/IoT_LINK_1.0.0/drivers/third_party/ST/STM32L4xx_HAL_Driver/Src\stm32l4xx_hal_uart_ex.c ****   tmpcr1 = READ_REG(huart->Instance->CR1);
 625:C:/Users/SAM.KINUTHIA/.icode/sdk/IoT_LINK_1.0.0/drivers/third_party/ST/STM32L4xx_HAL_Driver/Src\stm32l4xx_hal_uart_ex.c ****   
 626:C:/Users/SAM.KINUTHIA/.icode/sdk/IoT_LINK_1.0.0/drivers/third_party/ST/STM32L4xx_HAL_Driver/Src\stm32l4xx_hal_uart_ex.c ****   /* Disable UART */
 627:C:/Users/SAM.KINUTHIA/.icode/sdk/IoT_LINK_1.0.0/drivers/third_party/ST/STM32L4xx_HAL_Driver/Src\stm32l4xx_hal_uart_ex.c ****   __HAL_UART_DISABLE(huart);
 628:C:/Users/SAM.KINUTHIA/.icode/sdk/IoT_LINK_1.0.0/drivers/third_party/ST/STM32L4xx_HAL_Driver/Src\stm32l4xx_hal_uart_ex.c **** 
 629:C:/Users/SAM.KINUTHIA/.icode/sdk/IoT_LINK_1.0.0/drivers/third_party/ST/STM32L4xx_HAL_Driver/Src\stm32l4xx_hal_uart_ex.c ****   /* Program DIS_NSS bit in the USART_CR2 register */
 630:C:/Users/SAM.KINUTHIA/.icode/sdk/IoT_LINK_1.0.0/drivers/third_party/ST/STM32L4xx_HAL_Driver/Src\stm32l4xx_hal_uart_ex.c ****   MODIFY_REG(huart->Instance->CR2, USART_CR2_DIS_NSS, NSSConfig);
 631:C:/Users/SAM.KINUTHIA/.icode/sdk/IoT_LINK_1.0.0/drivers/third_party/ST/STM32L4xx_HAL_Driver/Src\stm32l4xx_hal_uart_ex.c ****   
 632:C:/Users/SAM.KINUTHIA/.icode/sdk/IoT_LINK_1.0.0/drivers/third_party/ST/STM32L4xx_HAL_Driver/Src\stm32l4xx_hal_uart_ex.c ****   /* Restore UART configuration */
 633:C:/Users/SAM.KINUTHIA/.icode/sdk/IoT_LINK_1.0.0/drivers/third_party/ST/STM32L4xx_HAL_Driver/Src\stm32l4xx_hal_uart_ex.c ****   WRITE_REG(huart->Instance->CR1, tmpcr1);
 634:C:/Users/SAM.KINUTHIA/.icode/sdk/IoT_LINK_1.0.0/drivers/third_party/ST/STM32L4xx_HAL_Driver/Src\stm32l4xx_hal_uart_ex.c ****  
 635:C:/Users/SAM.KINUTHIA/.icode/sdk/IoT_LINK_1.0.0/drivers/third_party/ST/STM32L4xx_HAL_Driver/Src\stm32l4xx_hal_uart_ex.c ****   huart->gState = HAL_UART_STATE_READY;
 636:C:/Users/SAM.KINUTHIA/.icode/sdk/IoT_LINK_1.0.0/drivers/third_party/ST/STM32L4xx_HAL_Driver/Src\stm32l4xx_hal_uart_ex.c ****   
 637:C:/Users/SAM.KINUTHIA/.icode/sdk/IoT_LINK_1.0.0/drivers/third_party/ST/STM32L4xx_HAL_Driver/Src\stm32l4xx_hal_uart_ex.c ****   /* Process Unlocked */
 638:C:/Users/SAM.KINUTHIA/.icode/sdk/IoT_LINK_1.0.0/drivers/third_party/ST/STM32L4xx_HAL_Driver/Src\stm32l4xx_hal_uart_ex.c ****   __HAL_UNLOCK(huart);
 639:C:/Users/SAM.KINUTHIA/.icode/sdk/IoT_LINK_1.0.0/drivers/third_party/ST/STM32L4xx_HAL_Driver/Src\stm32l4xx_hal_uart_ex.c **** 
 640:C:/Users/SAM.KINUTHIA/.icode/sdk/IoT_LINK_1.0.0/drivers/third_party/ST/STM32L4xx_HAL_Driver/Src\stm32l4xx_hal_uart_ex.c ****   return HAL_OK;
 641:C:/Users/SAM.KINUTHIA/.icode/sdk/IoT_LINK_1.0.0/drivers/third_party/ST/STM32L4xx_HAL_Driver/Src\stm32l4xx_hal_uart_ex.c **** }
 642:C:/Users/SAM.KINUTHIA/.icode/sdk/IoT_LINK_1.0.0/drivers/third_party/ST/STM32L4xx_HAL_Driver/Src\stm32l4xx_hal_uart_ex.c **** #endif
 643:C:/Users/SAM.KINUTHIA/.icode/sdk/IoT_LINK_1.0.0/drivers/third_party/ST/STM32L4xx_HAL_Driver/Src\stm32l4xx_hal_uart_ex.c **** 
 644:C:/Users/SAM.KINUTHIA/.icode/sdk/IoT_LINK_1.0.0/drivers/third_party/ST/STM32L4xx_HAL_Driver/Src\stm32l4xx_hal_uart_ex.c **** #if defined(USART_CR1_FIFOEN)
 645:C:/Users/SAM.KINUTHIA/.icode/sdk/IoT_LINK_1.0.0/drivers/third_party/ST/STM32L4xx_HAL_Driver/Src\stm32l4xx_hal_uart_ex.c **** /**
 646:C:/Users/SAM.KINUTHIA/.icode/sdk/IoT_LINK_1.0.0/drivers/third_party/ST/STM32L4xx_HAL_Driver/Src\stm32l4xx_hal_uart_ex.c ****   * @brief  Enable the FIFO mode.
 647:C:/Users/SAM.KINUTHIA/.icode/sdk/IoT_LINK_1.0.0/drivers/third_party/ST/STM32L4xx_HAL_Driver/Src\stm32l4xx_hal_uart_ex.c ****   * @param huart      UART handle.
 648:C:/Users/SAM.KINUTHIA/.icode/sdk/IoT_LINK_1.0.0/drivers/third_party/ST/STM32L4xx_HAL_Driver/Src\stm32l4xx_hal_uart_ex.c ****   * @retval HAL status
 649:C:/Users/SAM.KINUTHIA/.icode/sdk/IoT_LINK_1.0.0/drivers/third_party/ST/STM32L4xx_HAL_Driver/Src\stm32l4xx_hal_uart_ex.c ****   */
 650:C:/Users/SAM.KINUTHIA/.icode/sdk/IoT_LINK_1.0.0/drivers/third_party/ST/STM32L4xx_HAL_Driver/Src\stm32l4xx_hal_uart_ex.c **** HAL_StatusTypeDef HAL_UARTEx_EnableFifoMode(UART_HandleTypeDef *huart)
 651:C:/Users/SAM.KINUTHIA/.icode/sdk/IoT_LINK_1.0.0/drivers/third_party/ST/STM32L4xx_HAL_Driver/Src\stm32l4xx_hal_uart_ex.c **** {
 652:C:/Users/SAM.KINUTHIA/.icode/sdk/IoT_LINK_1.0.0/drivers/third_party/ST/STM32L4xx_HAL_Driver/Src\stm32l4xx_hal_uart_ex.c ****   uint32_t tmpcr1 = 0;
 653:C:/Users/SAM.KINUTHIA/.icode/sdk/IoT_LINK_1.0.0/drivers/third_party/ST/STM32L4xx_HAL_Driver/Src\stm32l4xx_hal_uart_ex.c ****   
 654:C:/Users/SAM.KINUTHIA/.icode/sdk/IoT_LINK_1.0.0/drivers/third_party/ST/STM32L4xx_HAL_Driver/Src\stm32l4xx_hal_uart_ex.c ****   /* Check parameters */
 655:C:/Users/SAM.KINUTHIA/.icode/sdk/IoT_LINK_1.0.0/drivers/third_party/ST/STM32L4xx_HAL_Driver/Src\stm32l4xx_hal_uart_ex.c ****   assert_param(IS_UART_FIFO_INSTANCE(huart->Instance));
 656:C:/Users/SAM.KINUTHIA/.icode/sdk/IoT_LINK_1.0.0/drivers/third_party/ST/STM32L4xx_HAL_Driver/Src\stm32l4xx_hal_uart_ex.c **** 
 657:C:/Users/SAM.KINUTHIA/.icode/sdk/IoT_LINK_1.0.0/drivers/third_party/ST/STM32L4xx_HAL_Driver/Src\stm32l4xx_hal_uart_ex.c ****   /* Process Locked */
 658:C:/Users/SAM.KINUTHIA/.icode/sdk/IoT_LINK_1.0.0/drivers/third_party/ST/STM32L4xx_HAL_Driver/Src\stm32l4xx_hal_uart_ex.c ****   __HAL_LOCK(huart);
 659:C:/Users/SAM.KINUTHIA/.icode/sdk/IoT_LINK_1.0.0/drivers/third_party/ST/STM32L4xx_HAL_Driver/Src\stm32l4xx_hal_uart_ex.c ****   
 660:C:/Users/SAM.KINUTHIA/.icode/sdk/IoT_LINK_1.0.0/drivers/third_party/ST/STM32L4xx_HAL_Driver/Src\stm32l4xx_hal_uart_ex.c ****   huart->gState = HAL_UART_STATE_BUSY;
 661:C:/Users/SAM.KINUTHIA/.icode/sdk/IoT_LINK_1.0.0/drivers/third_party/ST/STM32L4xx_HAL_Driver/Src\stm32l4xx_hal_uart_ex.c ****   
 662:C:/Users/SAM.KINUTHIA/.icode/sdk/IoT_LINK_1.0.0/drivers/third_party/ST/STM32L4xx_HAL_Driver/Src\stm32l4xx_hal_uart_ex.c ****   /* Save actual UART configuration */
 663:C:/Users/SAM.KINUTHIA/.icode/sdk/IoT_LINK_1.0.0/drivers/third_party/ST/STM32L4xx_HAL_Driver/Src\stm32l4xx_hal_uart_ex.c ****   tmpcr1 = READ_REG(huart->Instance->CR1);
 664:C:/Users/SAM.KINUTHIA/.icode/sdk/IoT_LINK_1.0.0/drivers/third_party/ST/STM32L4xx_HAL_Driver/Src\stm32l4xx_hal_uart_ex.c ****   
 665:C:/Users/SAM.KINUTHIA/.icode/sdk/IoT_LINK_1.0.0/drivers/third_party/ST/STM32L4xx_HAL_Driver/Src\stm32l4xx_hal_uart_ex.c ****   /* Disable UART */
 666:C:/Users/SAM.KINUTHIA/.icode/sdk/IoT_LINK_1.0.0/drivers/third_party/ST/STM32L4xx_HAL_Driver/Src\stm32l4xx_hal_uart_ex.c ****   __HAL_UART_DISABLE(huart);
 667:C:/Users/SAM.KINUTHIA/.icode/sdk/IoT_LINK_1.0.0/drivers/third_party/ST/STM32L4xx_HAL_Driver/Src\stm32l4xx_hal_uart_ex.c ****   
 668:C:/Users/SAM.KINUTHIA/.icode/sdk/IoT_LINK_1.0.0/drivers/third_party/ST/STM32L4xx_HAL_Driver/Src\stm32l4xx_hal_uart_ex.c ****   /* Enable FIFO mode */
 669:C:/Users/SAM.KINUTHIA/.icode/sdk/IoT_LINK_1.0.0/drivers/third_party/ST/STM32L4xx_HAL_Driver/Src\stm32l4xx_hal_uart_ex.c ****   SET_BIT(tmpcr1, USART_CR1_FIFOEN);
 670:C:/Users/SAM.KINUTHIA/.icode/sdk/IoT_LINK_1.0.0/drivers/third_party/ST/STM32L4xx_HAL_Driver/Src\stm32l4xx_hal_uart_ex.c ****   huart->FifoMode = UART_FIFOMODE_ENABLE;
 671:C:/Users/SAM.KINUTHIA/.icode/sdk/IoT_LINK_1.0.0/drivers/third_party/ST/STM32L4xx_HAL_Driver/Src\stm32l4xx_hal_uart_ex.c ****   
 672:C:/Users/SAM.KINUTHIA/.icode/sdk/IoT_LINK_1.0.0/drivers/third_party/ST/STM32L4xx_HAL_Driver/Src\stm32l4xx_hal_uart_ex.c ****   /* Restore UART configuration */
 673:C:/Users/SAM.KINUTHIA/.icode/sdk/IoT_LINK_1.0.0/drivers/third_party/ST/STM32L4xx_HAL_Driver/Src\stm32l4xx_hal_uart_ex.c ****   WRITE_REG(huart->Instance->CR1, tmpcr1);
 674:C:/Users/SAM.KINUTHIA/.icode/sdk/IoT_LINK_1.0.0/drivers/third_party/ST/STM32L4xx_HAL_Driver/Src\stm32l4xx_hal_uart_ex.c ****   
 675:C:/Users/SAM.KINUTHIA/.icode/sdk/IoT_LINK_1.0.0/drivers/third_party/ST/STM32L4xx_HAL_Driver/Src\stm32l4xx_hal_uart_ex.c ****   /* Determine the number of data to process during RX/TX ISR execution */
 676:C:/Users/SAM.KINUTHIA/.icode/sdk/IoT_LINK_1.0.0/drivers/third_party/ST/STM32L4xx_HAL_Driver/Src\stm32l4xx_hal_uart_ex.c ****   UARTEx_SetNbDataToProcess(huart);
ARM GAS  C:\Users\SAM~1.KIN\AppData\Local\Temp\ccbOvCcl.s 			page 23


 677:C:/Users/SAM.KINUTHIA/.icode/sdk/IoT_LINK_1.0.0/drivers/third_party/ST/STM32L4xx_HAL_Driver/Src\stm32l4xx_hal_uart_ex.c ****   
 678:C:/Users/SAM.KINUTHIA/.icode/sdk/IoT_LINK_1.0.0/drivers/third_party/ST/STM32L4xx_HAL_Driver/Src\stm32l4xx_hal_uart_ex.c ****   huart->gState = HAL_UART_STATE_READY;
 679:C:/Users/SAM.KINUTHIA/.icode/sdk/IoT_LINK_1.0.0/drivers/third_party/ST/STM32L4xx_HAL_Driver/Src\stm32l4xx_hal_uart_ex.c ****   
 680:C:/Users/SAM.KINUTHIA/.icode/sdk/IoT_LINK_1.0.0/drivers/third_party/ST/STM32L4xx_HAL_Driver/Src\stm32l4xx_hal_uart_ex.c ****   /* Process Unlocked */
 681:C:/Users/SAM.KINUTHIA/.icode/sdk/IoT_LINK_1.0.0/drivers/third_party/ST/STM32L4xx_HAL_Driver/Src\stm32l4xx_hal_uart_ex.c ****   __HAL_UNLOCK(huart);
 682:C:/Users/SAM.KINUTHIA/.icode/sdk/IoT_LINK_1.0.0/drivers/third_party/ST/STM32L4xx_HAL_Driver/Src\stm32l4xx_hal_uart_ex.c ****  
 683:C:/Users/SAM.KINUTHIA/.icode/sdk/IoT_LINK_1.0.0/drivers/third_party/ST/STM32L4xx_HAL_Driver/Src\stm32l4xx_hal_uart_ex.c ****   return HAL_OK;
 684:C:/Users/SAM.KINUTHIA/.icode/sdk/IoT_LINK_1.0.0/drivers/third_party/ST/STM32L4xx_HAL_Driver/Src\stm32l4xx_hal_uart_ex.c **** }
 685:C:/Users/SAM.KINUTHIA/.icode/sdk/IoT_LINK_1.0.0/drivers/third_party/ST/STM32L4xx_HAL_Driver/Src\stm32l4xx_hal_uart_ex.c **** 
 686:C:/Users/SAM.KINUTHIA/.icode/sdk/IoT_LINK_1.0.0/drivers/third_party/ST/STM32L4xx_HAL_Driver/Src\stm32l4xx_hal_uart_ex.c **** /**
 687:C:/Users/SAM.KINUTHIA/.icode/sdk/IoT_LINK_1.0.0/drivers/third_party/ST/STM32L4xx_HAL_Driver/Src\stm32l4xx_hal_uart_ex.c ****   * @brief  Disable the FIFO mode.
 688:C:/Users/SAM.KINUTHIA/.icode/sdk/IoT_LINK_1.0.0/drivers/third_party/ST/STM32L4xx_HAL_Driver/Src\stm32l4xx_hal_uart_ex.c ****   * @param huart      UART handle.
 689:C:/Users/SAM.KINUTHIA/.icode/sdk/IoT_LINK_1.0.0/drivers/third_party/ST/STM32L4xx_HAL_Driver/Src\stm32l4xx_hal_uart_ex.c ****   * @retval HAL status
 690:C:/Users/SAM.KINUTHIA/.icode/sdk/IoT_LINK_1.0.0/drivers/third_party/ST/STM32L4xx_HAL_Driver/Src\stm32l4xx_hal_uart_ex.c ****   */
 691:C:/Users/SAM.KINUTHIA/.icode/sdk/IoT_LINK_1.0.0/drivers/third_party/ST/STM32L4xx_HAL_Driver/Src\stm32l4xx_hal_uart_ex.c **** HAL_StatusTypeDef HAL_UARTEx_DisableFifoMode(UART_HandleTypeDef *huart)
 692:C:/Users/SAM.KINUTHIA/.icode/sdk/IoT_LINK_1.0.0/drivers/third_party/ST/STM32L4xx_HAL_Driver/Src\stm32l4xx_hal_uart_ex.c **** {
 693:C:/Users/SAM.KINUTHIA/.icode/sdk/IoT_LINK_1.0.0/drivers/third_party/ST/STM32L4xx_HAL_Driver/Src\stm32l4xx_hal_uart_ex.c ****   uint32_t tmpcr1 = 0;
 694:C:/Users/SAM.KINUTHIA/.icode/sdk/IoT_LINK_1.0.0/drivers/third_party/ST/STM32L4xx_HAL_Driver/Src\stm32l4xx_hal_uart_ex.c **** 
 695:C:/Users/SAM.KINUTHIA/.icode/sdk/IoT_LINK_1.0.0/drivers/third_party/ST/STM32L4xx_HAL_Driver/Src\stm32l4xx_hal_uart_ex.c ****   /* Check parameters */
 696:C:/Users/SAM.KINUTHIA/.icode/sdk/IoT_LINK_1.0.0/drivers/third_party/ST/STM32L4xx_HAL_Driver/Src\stm32l4xx_hal_uart_ex.c ****   assert_param(IS_UART_FIFO_INSTANCE(huart->Instance));
 697:C:/Users/SAM.KINUTHIA/.icode/sdk/IoT_LINK_1.0.0/drivers/third_party/ST/STM32L4xx_HAL_Driver/Src\stm32l4xx_hal_uart_ex.c **** 
 698:C:/Users/SAM.KINUTHIA/.icode/sdk/IoT_LINK_1.0.0/drivers/third_party/ST/STM32L4xx_HAL_Driver/Src\stm32l4xx_hal_uart_ex.c ****   /* Process Locked */
 699:C:/Users/SAM.KINUTHIA/.icode/sdk/IoT_LINK_1.0.0/drivers/third_party/ST/STM32L4xx_HAL_Driver/Src\stm32l4xx_hal_uart_ex.c ****   __HAL_LOCK(huart);
 700:C:/Users/SAM.KINUTHIA/.icode/sdk/IoT_LINK_1.0.0/drivers/third_party/ST/STM32L4xx_HAL_Driver/Src\stm32l4xx_hal_uart_ex.c ****   
 701:C:/Users/SAM.KINUTHIA/.icode/sdk/IoT_LINK_1.0.0/drivers/third_party/ST/STM32L4xx_HAL_Driver/Src\stm32l4xx_hal_uart_ex.c ****   huart->gState = HAL_UART_STATE_BUSY;
 702:C:/Users/SAM.KINUTHIA/.icode/sdk/IoT_LINK_1.0.0/drivers/third_party/ST/STM32L4xx_HAL_Driver/Src\stm32l4xx_hal_uart_ex.c ****   
 703:C:/Users/SAM.KINUTHIA/.icode/sdk/IoT_LINK_1.0.0/drivers/third_party/ST/STM32L4xx_HAL_Driver/Src\stm32l4xx_hal_uart_ex.c ****   /* Save actual UART configuration */
 704:C:/Users/SAM.KINUTHIA/.icode/sdk/IoT_LINK_1.0.0/drivers/third_party/ST/STM32L4xx_HAL_Driver/Src\stm32l4xx_hal_uart_ex.c ****   tmpcr1 = READ_REG(huart->Instance->CR1);
 705:C:/Users/SAM.KINUTHIA/.icode/sdk/IoT_LINK_1.0.0/drivers/third_party/ST/STM32L4xx_HAL_Driver/Src\stm32l4xx_hal_uart_ex.c ****   
 706:C:/Users/SAM.KINUTHIA/.icode/sdk/IoT_LINK_1.0.0/drivers/third_party/ST/STM32L4xx_HAL_Driver/Src\stm32l4xx_hal_uart_ex.c ****   /* Disable UART */
 707:C:/Users/SAM.KINUTHIA/.icode/sdk/IoT_LINK_1.0.0/drivers/third_party/ST/STM32L4xx_HAL_Driver/Src\stm32l4xx_hal_uart_ex.c ****   __HAL_UART_DISABLE(huart);
 708:C:/Users/SAM.KINUTHIA/.icode/sdk/IoT_LINK_1.0.0/drivers/third_party/ST/STM32L4xx_HAL_Driver/Src\stm32l4xx_hal_uart_ex.c ****   
 709:C:/Users/SAM.KINUTHIA/.icode/sdk/IoT_LINK_1.0.0/drivers/third_party/ST/STM32L4xx_HAL_Driver/Src\stm32l4xx_hal_uart_ex.c ****   /* Enable FIFO mode */
 710:C:/Users/SAM.KINUTHIA/.icode/sdk/IoT_LINK_1.0.0/drivers/third_party/ST/STM32L4xx_HAL_Driver/Src\stm32l4xx_hal_uart_ex.c ****   CLEAR_BIT(tmpcr1, USART_CR1_FIFOEN);
 711:C:/Users/SAM.KINUTHIA/.icode/sdk/IoT_LINK_1.0.0/drivers/third_party/ST/STM32L4xx_HAL_Driver/Src\stm32l4xx_hal_uart_ex.c ****   huart->FifoMode = UART_FIFOMODE_DISABLE;
 712:C:/Users/SAM.KINUTHIA/.icode/sdk/IoT_LINK_1.0.0/drivers/third_party/ST/STM32L4xx_HAL_Driver/Src\stm32l4xx_hal_uart_ex.c ****   
 713:C:/Users/SAM.KINUTHIA/.icode/sdk/IoT_LINK_1.0.0/drivers/third_party/ST/STM32L4xx_HAL_Driver/Src\stm32l4xx_hal_uart_ex.c ****   /* Restore UART configuration */
 714:C:/Users/SAM.KINUTHIA/.icode/sdk/IoT_LINK_1.0.0/drivers/third_party/ST/STM32L4xx_HAL_Driver/Src\stm32l4xx_hal_uart_ex.c ****   WRITE_REG(huart->Instance->CR1, tmpcr1);
 715:C:/Users/SAM.KINUTHIA/.icode/sdk/IoT_LINK_1.0.0/drivers/third_party/ST/STM32L4xx_HAL_Driver/Src\stm32l4xx_hal_uart_ex.c ****   
 716:C:/Users/SAM.KINUTHIA/.icode/sdk/IoT_LINK_1.0.0/drivers/third_party/ST/STM32L4xx_HAL_Driver/Src\stm32l4xx_hal_uart_ex.c ****   huart->gState = HAL_UART_STATE_READY;
 717:C:/Users/SAM.KINUTHIA/.icode/sdk/IoT_LINK_1.0.0/drivers/third_party/ST/STM32L4xx_HAL_Driver/Src\stm32l4xx_hal_uart_ex.c ****   
 718:C:/Users/SAM.KINUTHIA/.icode/sdk/IoT_LINK_1.0.0/drivers/third_party/ST/STM32L4xx_HAL_Driver/Src\stm32l4xx_hal_uart_ex.c ****   /* Process Unlocked */
 719:C:/Users/SAM.KINUTHIA/.icode/sdk/IoT_LINK_1.0.0/drivers/third_party/ST/STM32L4xx_HAL_Driver/Src\stm32l4xx_hal_uart_ex.c ****   __HAL_UNLOCK(huart);
 720:C:/Users/SAM.KINUTHIA/.icode/sdk/IoT_LINK_1.0.0/drivers/third_party/ST/STM32L4xx_HAL_Driver/Src\stm32l4xx_hal_uart_ex.c ****  
 721:C:/Users/SAM.KINUTHIA/.icode/sdk/IoT_LINK_1.0.0/drivers/third_party/ST/STM32L4xx_HAL_Driver/Src\stm32l4xx_hal_uart_ex.c ****   return HAL_OK;
 722:C:/Users/SAM.KINUTHIA/.icode/sdk/IoT_LINK_1.0.0/drivers/third_party/ST/STM32L4xx_HAL_Driver/Src\stm32l4xx_hal_uart_ex.c **** }
 723:C:/Users/SAM.KINUTHIA/.icode/sdk/IoT_LINK_1.0.0/drivers/third_party/ST/STM32L4xx_HAL_Driver/Src\stm32l4xx_hal_uart_ex.c **** 
 724:C:/Users/SAM.KINUTHIA/.icode/sdk/IoT_LINK_1.0.0/drivers/third_party/ST/STM32L4xx_HAL_Driver/Src\stm32l4xx_hal_uart_ex.c **** /**
 725:C:/Users/SAM.KINUTHIA/.icode/sdk/IoT_LINK_1.0.0/drivers/third_party/ST/STM32L4xx_HAL_Driver/Src\stm32l4xx_hal_uart_ex.c ****   * @brief  Set the TXFIFO threshold.
 726:C:/Users/SAM.KINUTHIA/.icode/sdk/IoT_LINK_1.0.0/drivers/third_party/ST/STM32L4xx_HAL_Driver/Src\stm32l4xx_hal_uart_ex.c ****   * @param huart      UART handle.
 727:C:/Users/SAM.KINUTHIA/.icode/sdk/IoT_LINK_1.0.0/drivers/third_party/ST/STM32L4xx_HAL_Driver/Src\stm32l4xx_hal_uart_ex.c ****   * @param Threshold  TX FIFO threshold value
 728:C:/Users/SAM.KINUTHIA/.icode/sdk/IoT_LINK_1.0.0/drivers/third_party/ST/STM32L4xx_HAL_Driver/Src\stm32l4xx_hal_uart_ex.c ****   *          This parameter can be one of the following values:
 729:C:/Users/SAM.KINUTHIA/.icode/sdk/IoT_LINK_1.0.0/drivers/third_party/ST/STM32L4xx_HAL_Driver/Src\stm32l4xx_hal_uart_ex.c ****   *            @arg @ref UART_TXFIFO_THRESHOLD_1_8
 730:C:/Users/SAM.KINUTHIA/.icode/sdk/IoT_LINK_1.0.0/drivers/third_party/ST/STM32L4xx_HAL_Driver/Src\stm32l4xx_hal_uart_ex.c ****   *            @arg @ref UART_TXFIFO_THRESHOLD_1_4
 731:C:/Users/SAM.KINUTHIA/.icode/sdk/IoT_LINK_1.0.0/drivers/third_party/ST/STM32L4xx_HAL_Driver/Src\stm32l4xx_hal_uart_ex.c ****   *            @arg @ref UART_TXFIFO_THRESHOLD_1_2
 732:C:/Users/SAM.KINUTHIA/.icode/sdk/IoT_LINK_1.0.0/drivers/third_party/ST/STM32L4xx_HAL_Driver/Src\stm32l4xx_hal_uart_ex.c ****   *            @arg @ref UART_TXFIFO_THRESHOLD_3_4
 733:C:/Users/SAM.KINUTHIA/.icode/sdk/IoT_LINK_1.0.0/drivers/third_party/ST/STM32L4xx_HAL_Driver/Src\stm32l4xx_hal_uart_ex.c ****   *            @arg @ref UART_TXFIFO_THRESHOLD_7_8
ARM GAS  C:\Users\SAM~1.KIN\AppData\Local\Temp\ccbOvCcl.s 			page 24


 734:C:/Users/SAM.KINUTHIA/.icode/sdk/IoT_LINK_1.0.0/drivers/third_party/ST/STM32L4xx_HAL_Driver/Src\stm32l4xx_hal_uart_ex.c ****   *            @arg @ref UART_TXFIFO_THRESHOLD_8_8
 735:C:/Users/SAM.KINUTHIA/.icode/sdk/IoT_LINK_1.0.0/drivers/third_party/ST/STM32L4xx_HAL_Driver/Src\stm32l4xx_hal_uart_ex.c ****   * @retval HAL status
 736:C:/Users/SAM.KINUTHIA/.icode/sdk/IoT_LINK_1.0.0/drivers/third_party/ST/STM32L4xx_HAL_Driver/Src\stm32l4xx_hal_uart_ex.c ****   */
 737:C:/Users/SAM.KINUTHIA/.icode/sdk/IoT_LINK_1.0.0/drivers/third_party/ST/STM32L4xx_HAL_Driver/Src\stm32l4xx_hal_uart_ex.c **** HAL_StatusTypeDef HAL_UARTEx_SetTxFifoThreshold(UART_HandleTypeDef *huart, uint32_t Threshold)
 738:C:/Users/SAM.KINUTHIA/.icode/sdk/IoT_LINK_1.0.0/drivers/third_party/ST/STM32L4xx_HAL_Driver/Src\stm32l4xx_hal_uart_ex.c **** {
 739:C:/Users/SAM.KINUTHIA/.icode/sdk/IoT_LINK_1.0.0/drivers/third_party/ST/STM32L4xx_HAL_Driver/Src\stm32l4xx_hal_uart_ex.c ****   uint32_t tmpcr1 = 0;
 740:C:/Users/SAM.KINUTHIA/.icode/sdk/IoT_LINK_1.0.0/drivers/third_party/ST/STM32L4xx_HAL_Driver/Src\stm32l4xx_hal_uart_ex.c ****   
 741:C:/Users/SAM.KINUTHIA/.icode/sdk/IoT_LINK_1.0.0/drivers/third_party/ST/STM32L4xx_HAL_Driver/Src\stm32l4xx_hal_uart_ex.c ****   /* Check parameters */
 742:C:/Users/SAM.KINUTHIA/.icode/sdk/IoT_LINK_1.0.0/drivers/third_party/ST/STM32L4xx_HAL_Driver/Src\stm32l4xx_hal_uart_ex.c ****   assert_param(IS_UART_FIFO_INSTANCE(huart->Instance));
 743:C:/Users/SAM.KINUTHIA/.icode/sdk/IoT_LINK_1.0.0/drivers/third_party/ST/STM32L4xx_HAL_Driver/Src\stm32l4xx_hal_uart_ex.c ****   assert_param(IS_UART_TXFIFO_THRESHOLD(Threshold));
 744:C:/Users/SAM.KINUTHIA/.icode/sdk/IoT_LINK_1.0.0/drivers/third_party/ST/STM32L4xx_HAL_Driver/Src\stm32l4xx_hal_uart_ex.c **** 
 745:C:/Users/SAM.KINUTHIA/.icode/sdk/IoT_LINK_1.0.0/drivers/third_party/ST/STM32L4xx_HAL_Driver/Src\stm32l4xx_hal_uart_ex.c ****   /* Process Locked */
 746:C:/Users/SAM.KINUTHIA/.icode/sdk/IoT_LINK_1.0.0/drivers/third_party/ST/STM32L4xx_HAL_Driver/Src\stm32l4xx_hal_uart_ex.c ****   __HAL_LOCK(huart);
 747:C:/Users/SAM.KINUTHIA/.icode/sdk/IoT_LINK_1.0.0/drivers/third_party/ST/STM32L4xx_HAL_Driver/Src\stm32l4xx_hal_uart_ex.c ****   
 748:C:/Users/SAM.KINUTHIA/.icode/sdk/IoT_LINK_1.0.0/drivers/third_party/ST/STM32L4xx_HAL_Driver/Src\stm32l4xx_hal_uart_ex.c ****   huart->gState = HAL_UART_STATE_BUSY;
 749:C:/Users/SAM.KINUTHIA/.icode/sdk/IoT_LINK_1.0.0/drivers/third_party/ST/STM32L4xx_HAL_Driver/Src\stm32l4xx_hal_uart_ex.c ****   
 750:C:/Users/SAM.KINUTHIA/.icode/sdk/IoT_LINK_1.0.0/drivers/third_party/ST/STM32L4xx_HAL_Driver/Src\stm32l4xx_hal_uart_ex.c ****   /* Save actual UART configuration */
 751:C:/Users/SAM.KINUTHIA/.icode/sdk/IoT_LINK_1.0.0/drivers/third_party/ST/STM32L4xx_HAL_Driver/Src\stm32l4xx_hal_uart_ex.c ****   tmpcr1 = READ_REG(huart->Instance->CR1);
 752:C:/Users/SAM.KINUTHIA/.icode/sdk/IoT_LINK_1.0.0/drivers/third_party/ST/STM32L4xx_HAL_Driver/Src\stm32l4xx_hal_uart_ex.c ****   
 753:C:/Users/SAM.KINUTHIA/.icode/sdk/IoT_LINK_1.0.0/drivers/third_party/ST/STM32L4xx_HAL_Driver/Src\stm32l4xx_hal_uart_ex.c ****   /* Disable UART */
 754:C:/Users/SAM.KINUTHIA/.icode/sdk/IoT_LINK_1.0.0/drivers/third_party/ST/STM32L4xx_HAL_Driver/Src\stm32l4xx_hal_uart_ex.c ****   __HAL_UART_DISABLE(huart);
 755:C:/Users/SAM.KINUTHIA/.icode/sdk/IoT_LINK_1.0.0/drivers/third_party/ST/STM32L4xx_HAL_Driver/Src\stm32l4xx_hal_uart_ex.c ****   
 756:C:/Users/SAM.KINUTHIA/.icode/sdk/IoT_LINK_1.0.0/drivers/third_party/ST/STM32L4xx_HAL_Driver/Src\stm32l4xx_hal_uart_ex.c ****   /* Update TX threshold configuration */
 757:C:/Users/SAM.KINUTHIA/.icode/sdk/IoT_LINK_1.0.0/drivers/third_party/ST/STM32L4xx_HAL_Driver/Src\stm32l4xx_hal_uart_ex.c ****   MODIFY_REG(huart->Instance->CR3, USART_CR3_TXFTCFG, Threshold);
 758:C:/Users/SAM.KINUTHIA/.icode/sdk/IoT_LINK_1.0.0/drivers/third_party/ST/STM32L4xx_HAL_Driver/Src\stm32l4xx_hal_uart_ex.c ****   
 759:C:/Users/SAM.KINUTHIA/.icode/sdk/IoT_LINK_1.0.0/drivers/third_party/ST/STM32L4xx_HAL_Driver/Src\stm32l4xx_hal_uart_ex.c ****   /* Determine the number of data to process during RX/TX ISR execution */
 760:C:/Users/SAM.KINUTHIA/.icode/sdk/IoT_LINK_1.0.0/drivers/third_party/ST/STM32L4xx_HAL_Driver/Src\stm32l4xx_hal_uart_ex.c ****   UARTEx_SetNbDataToProcess(huart);
 761:C:/Users/SAM.KINUTHIA/.icode/sdk/IoT_LINK_1.0.0/drivers/third_party/ST/STM32L4xx_HAL_Driver/Src\stm32l4xx_hal_uart_ex.c ****   
 762:C:/Users/SAM.KINUTHIA/.icode/sdk/IoT_LINK_1.0.0/drivers/third_party/ST/STM32L4xx_HAL_Driver/Src\stm32l4xx_hal_uart_ex.c ****   /* Restore UART configuration */
 763:C:/Users/SAM.KINUTHIA/.icode/sdk/IoT_LINK_1.0.0/drivers/third_party/ST/STM32L4xx_HAL_Driver/Src\stm32l4xx_hal_uart_ex.c ****   WRITE_REG(huart->Instance->CR1, tmpcr1);
 764:C:/Users/SAM.KINUTHIA/.icode/sdk/IoT_LINK_1.0.0/drivers/third_party/ST/STM32L4xx_HAL_Driver/Src\stm32l4xx_hal_uart_ex.c ****   
 765:C:/Users/SAM.KINUTHIA/.icode/sdk/IoT_LINK_1.0.0/drivers/third_party/ST/STM32L4xx_HAL_Driver/Src\stm32l4xx_hal_uart_ex.c ****   huart->gState = HAL_UART_STATE_READY;
 766:C:/Users/SAM.KINUTHIA/.icode/sdk/IoT_LINK_1.0.0/drivers/third_party/ST/STM32L4xx_HAL_Driver/Src\stm32l4xx_hal_uart_ex.c ****   
 767:C:/Users/SAM.KINUTHIA/.icode/sdk/IoT_LINK_1.0.0/drivers/third_party/ST/STM32L4xx_HAL_Driver/Src\stm32l4xx_hal_uart_ex.c ****   /* Process Unlocked */
 768:C:/Users/SAM.KINUTHIA/.icode/sdk/IoT_LINK_1.0.0/drivers/third_party/ST/STM32L4xx_HAL_Driver/Src\stm32l4xx_hal_uart_ex.c ****   __HAL_UNLOCK(huart);
 769:C:/Users/SAM.KINUTHIA/.icode/sdk/IoT_LINK_1.0.0/drivers/third_party/ST/STM32L4xx_HAL_Driver/Src\stm32l4xx_hal_uart_ex.c ****   
 770:C:/Users/SAM.KINUTHIA/.icode/sdk/IoT_LINK_1.0.0/drivers/third_party/ST/STM32L4xx_HAL_Driver/Src\stm32l4xx_hal_uart_ex.c ****   return HAL_OK;
 771:C:/Users/SAM.KINUTHIA/.icode/sdk/IoT_LINK_1.0.0/drivers/third_party/ST/STM32L4xx_HAL_Driver/Src\stm32l4xx_hal_uart_ex.c **** }
 772:C:/Users/SAM.KINUTHIA/.icode/sdk/IoT_LINK_1.0.0/drivers/third_party/ST/STM32L4xx_HAL_Driver/Src\stm32l4xx_hal_uart_ex.c **** 
 773:C:/Users/SAM.KINUTHIA/.icode/sdk/IoT_LINK_1.0.0/drivers/third_party/ST/STM32L4xx_HAL_Driver/Src\stm32l4xx_hal_uart_ex.c **** /**
 774:C:/Users/SAM.KINUTHIA/.icode/sdk/IoT_LINK_1.0.0/drivers/third_party/ST/STM32L4xx_HAL_Driver/Src\stm32l4xx_hal_uart_ex.c ****   * @brief  Set the RXFIFO threshold.
 775:C:/Users/SAM.KINUTHIA/.icode/sdk/IoT_LINK_1.0.0/drivers/third_party/ST/STM32L4xx_HAL_Driver/Src\stm32l4xx_hal_uart_ex.c ****   * @param huart      UART handle.
 776:C:/Users/SAM.KINUTHIA/.icode/sdk/IoT_LINK_1.0.0/drivers/third_party/ST/STM32L4xx_HAL_Driver/Src\stm32l4xx_hal_uart_ex.c ****   * @param Threshold  RX FIFO threshold value
 777:C:/Users/SAM.KINUTHIA/.icode/sdk/IoT_LINK_1.0.0/drivers/third_party/ST/STM32L4xx_HAL_Driver/Src\stm32l4xx_hal_uart_ex.c ****   *          This parameter can be one of the following values:
 778:C:/Users/SAM.KINUTHIA/.icode/sdk/IoT_LINK_1.0.0/drivers/third_party/ST/STM32L4xx_HAL_Driver/Src\stm32l4xx_hal_uart_ex.c ****   *            @arg @ref UART_RXFIFO_THRESHOLD_1_8
 779:C:/Users/SAM.KINUTHIA/.icode/sdk/IoT_LINK_1.0.0/drivers/third_party/ST/STM32L4xx_HAL_Driver/Src\stm32l4xx_hal_uart_ex.c ****   *            @arg @ref UART_RXFIFO_THRESHOLD_1_4
 780:C:/Users/SAM.KINUTHIA/.icode/sdk/IoT_LINK_1.0.0/drivers/third_party/ST/STM32L4xx_HAL_Driver/Src\stm32l4xx_hal_uart_ex.c ****   *            @arg @ref UART_RXFIFO_THRESHOLD_1_2
 781:C:/Users/SAM.KINUTHIA/.icode/sdk/IoT_LINK_1.0.0/drivers/third_party/ST/STM32L4xx_HAL_Driver/Src\stm32l4xx_hal_uart_ex.c ****   *            @arg @ref UART_RXFIFO_THRESHOLD_3_4
 782:C:/Users/SAM.KINUTHIA/.icode/sdk/IoT_LINK_1.0.0/drivers/third_party/ST/STM32L4xx_HAL_Driver/Src\stm32l4xx_hal_uart_ex.c ****   *            @arg @ref UART_RXFIFO_THRESHOLD_7_8
 783:C:/Users/SAM.KINUTHIA/.icode/sdk/IoT_LINK_1.0.0/drivers/third_party/ST/STM32L4xx_HAL_Driver/Src\stm32l4xx_hal_uart_ex.c ****   *            @arg @ref UART_RXFIFO_THRESHOLD_8_8
 784:C:/Users/SAM.KINUTHIA/.icode/sdk/IoT_LINK_1.0.0/drivers/third_party/ST/STM32L4xx_HAL_Driver/Src\stm32l4xx_hal_uart_ex.c ****   * @retval HAL status
 785:C:/Users/SAM.KINUTHIA/.icode/sdk/IoT_LINK_1.0.0/drivers/third_party/ST/STM32L4xx_HAL_Driver/Src\stm32l4xx_hal_uart_ex.c ****   */
 786:C:/Users/SAM.KINUTHIA/.icode/sdk/IoT_LINK_1.0.0/drivers/third_party/ST/STM32L4xx_HAL_Driver/Src\stm32l4xx_hal_uart_ex.c **** HAL_StatusTypeDef HAL_UARTEx_SetRxFifoThreshold(UART_HandleTypeDef *huart, uint32_t Threshold)
 787:C:/Users/SAM.KINUTHIA/.icode/sdk/IoT_LINK_1.0.0/drivers/third_party/ST/STM32L4xx_HAL_Driver/Src\stm32l4xx_hal_uart_ex.c **** {
 788:C:/Users/SAM.KINUTHIA/.icode/sdk/IoT_LINK_1.0.0/drivers/third_party/ST/STM32L4xx_HAL_Driver/Src\stm32l4xx_hal_uart_ex.c ****   uint32_t tmpcr1 = 0;
 789:C:/Users/SAM.KINUTHIA/.icode/sdk/IoT_LINK_1.0.0/drivers/third_party/ST/STM32L4xx_HAL_Driver/Src\stm32l4xx_hal_uart_ex.c ****   
 790:C:/Users/SAM.KINUTHIA/.icode/sdk/IoT_LINK_1.0.0/drivers/third_party/ST/STM32L4xx_HAL_Driver/Src\stm32l4xx_hal_uart_ex.c ****   /* Check the parameters */
ARM GAS  C:\Users\SAM~1.KIN\AppData\Local\Temp\ccbOvCcl.s 			page 25


 791:C:/Users/SAM.KINUTHIA/.icode/sdk/IoT_LINK_1.0.0/drivers/third_party/ST/STM32L4xx_HAL_Driver/Src\stm32l4xx_hal_uart_ex.c ****   assert_param(IS_UART_FIFO_INSTANCE(huart->Instance));
 792:C:/Users/SAM.KINUTHIA/.icode/sdk/IoT_LINK_1.0.0/drivers/third_party/ST/STM32L4xx_HAL_Driver/Src\stm32l4xx_hal_uart_ex.c ****   assert_param(IS_UART_RXFIFO_THRESHOLD(Threshold));
 793:C:/Users/SAM.KINUTHIA/.icode/sdk/IoT_LINK_1.0.0/drivers/third_party/ST/STM32L4xx_HAL_Driver/Src\stm32l4xx_hal_uart_ex.c **** 
 794:C:/Users/SAM.KINUTHIA/.icode/sdk/IoT_LINK_1.0.0/drivers/third_party/ST/STM32L4xx_HAL_Driver/Src\stm32l4xx_hal_uart_ex.c ****   /* Process Locked */
 795:C:/Users/SAM.KINUTHIA/.icode/sdk/IoT_LINK_1.0.0/drivers/third_party/ST/STM32L4xx_HAL_Driver/Src\stm32l4xx_hal_uart_ex.c ****   __HAL_LOCK(huart);
 796:C:/Users/SAM.KINUTHIA/.icode/sdk/IoT_LINK_1.0.0/drivers/third_party/ST/STM32L4xx_HAL_Driver/Src\stm32l4xx_hal_uart_ex.c ****   
 797:C:/Users/SAM.KINUTHIA/.icode/sdk/IoT_LINK_1.0.0/drivers/third_party/ST/STM32L4xx_HAL_Driver/Src\stm32l4xx_hal_uart_ex.c ****   huart->gState = HAL_UART_STATE_BUSY;
 798:C:/Users/SAM.KINUTHIA/.icode/sdk/IoT_LINK_1.0.0/drivers/third_party/ST/STM32L4xx_HAL_Driver/Src\stm32l4xx_hal_uart_ex.c ****   
 799:C:/Users/SAM.KINUTHIA/.icode/sdk/IoT_LINK_1.0.0/drivers/third_party/ST/STM32L4xx_HAL_Driver/Src\stm32l4xx_hal_uart_ex.c ****   /* Save actual UART configuration */
 800:C:/Users/SAM.KINUTHIA/.icode/sdk/IoT_LINK_1.0.0/drivers/third_party/ST/STM32L4xx_HAL_Driver/Src\stm32l4xx_hal_uart_ex.c ****   tmpcr1 = READ_REG(huart->Instance->CR1);
 801:C:/Users/SAM.KINUTHIA/.icode/sdk/IoT_LINK_1.0.0/drivers/third_party/ST/STM32L4xx_HAL_Driver/Src\stm32l4xx_hal_uart_ex.c ****   
 802:C:/Users/SAM.KINUTHIA/.icode/sdk/IoT_LINK_1.0.0/drivers/third_party/ST/STM32L4xx_HAL_Driver/Src\stm32l4xx_hal_uart_ex.c ****   /* Disable UART */
 803:C:/Users/SAM.KINUTHIA/.icode/sdk/IoT_LINK_1.0.0/drivers/third_party/ST/STM32L4xx_HAL_Driver/Src\stm32l4xx_hal_uart_ex.c ****   __HAL_UART_DISABLE(huart);
 804:C:/Users/SAM.KINUTHIA/.icode/sdk/IoT_LINK_1.0.0/drivers/third_party/ST/STM32L4xx_HAL_Driver/Src\stm32l4xx_hal_uart_ex.c ****   
 805:C:/Users/SAM.KINUTHIA/.icode/sdk/IoT_LINK_1.0.0/drivers/third_party/ST/STM32L4xx_HAL_Driver/Src\stm32l4xx_hal_uart_ex.c ****   /* Update RX threshold configuration */
 806:C:/Users/SAM.KINUTHIA/.icode/sdk/IoT_LINK_1.0.0/drivers/third_party/ST/STM32L4xx_HAL_Driver/Src\stm32l4xx_hal_uart_ex.c ****   MODIFY_REG(huart->Instance->CR3, USART_CR3_RXFTCFG, Threshold);
 807:C:/Users/SAM.KINUTHIA/.icode/sdk/IoT_LINK_1.0.0/drivers/third_party/ST/STM32L4xx_HAL_Driver/Src\stm32l4xx_hal_uart_ex.c ****   
 808:C:/Users/SAM.KINUTHIA/.icode/sdk/IoT_LINK_1.0.0/drivers/third_party/ST/STM32L4xx_HAL_Driver/Src\stm32l4xx_hal_uart_ex.c ****   /* Determine the number of data to process during RX/TX ISR execution */
 809:C:/Users/SAM.KINUTHIA/.icode/sdk/IoT_LINK_1.0.0/drivers/third_party/ST/STM32L4xx_HAL_Driver/Src\stm32l4xx_hal_uart_ex.c ****   UARTEx_SetNbDataToProcess(huart);
 810:C:/Users/SAM.KINUTHIA/.icode/sdk/IoT_LINK_1.0.0/drivers/third_party/ST/STM32L4xx_HAL_Driver/Src\stm32l4xx_hal_uart_ex.c ****   
 811:C:/Users/SAM.KINUTHIA/.icode/sdk/IoT_LINK_1.0.0/drivers/third_party/ST/STM32L4xx_HAL_Driver/Src\stm32l4xx_hal_uart_ex.c ****   /* Restore UART configuration */
 812:C:/Users/SAM.KINUTHIA/.icode/sdk/IoT_LINK_1.0.0/drivers/third_party/ST/STM32L4xx_HAL_Driver/Src\stm32l4xx_hal_uart_ex.c ****   WRITE_REG(huart->Instance->CR1, tmpcr1);
 813:C:/Users/SAM.KINUTHIA/.icode/sdk/IoT_LINK_1.0.0/drivers/third_party/ST/STM32L4xx_HAL_Driver/Src\stm32l4xx_hal_uart_ex.c ****   
 814:C:/Users/SAM.KINUTHIA/.icode/sdk/IoT_LINK_1.0.0/drivers/third_party/ST/STM32L4xx_HAL_Driver/Src\stm32l4xx_hal_uart_ex.c ****   huart->gState = HAL_UART_STATE_READY;
 815:C:/Users/SAM.KINUTHIA/.icode/sdk/IoT_LINK_1.0.0/drivers/third_party/ST/STM32L4xx_HAL_Driver/Src\stm32l4xx_hal_uart_ex.c ****   
 816:C:/Users/SAM.KINUTHIA/.icode/sdk/IoT_LINK_1.0.0/drivers/third_party/ST/STM32L4xx_HAL_Driver/Src\stm32l4xx_hal_uart_ex.c ****   /* Process Unlocked */
 817:C:/Users/SAM.KINUTHIA/.icode/sdk/IoT_LINK_1.0.0/drivers/third_party/ST/STM32L4xx_HAL_Driver/Src\stm32l4xx_hal_uart_ex.c ****   __HAL_UNLOCK(huart);
 818:C:/Users/SAM.KINUTHIA/.icode/sdk/IoT_LINK_1.0.0/drivers/third_party/ST/STM32L4xx_HAL_Driver/Src\stm32l4xx_hal_uart_ex.c ****   
 819:C:/Users/SAM.KINUTHIA/.icode/sdk/IoT_LINK_1.0.0/drivers/third_party/ST/STM32L4xx_HAL_Driver/Src\stm32l4xx_hal_uart_ex.c ****   return HAL_OK;
 820:C:/Users/SAM.KINUTHIA/.icode/sdk/IoT_LINK_1.0.0/drivers/third_party/ST/STM32L4xx_HAL_Driver/Src\stm32l4xx_hal_uart_ex.c **** }
 821:C:/Users/SAM.KINUTHIA/.icode/sdk/IoT_LINK_1.0.0/drivers/third_party/ST/STM32L4xx_HAL_Driver/Src\stm32l4xx_hal_uart_ex.c **** #endif
 822:C:/Users/SAM.KINUTHIA/.icode/sdk/IoT_LINK_1.0.0/drivers/third_party/ST/STM32L4xx_HAL_Driver/Src\stm32l4xx_hal_uart_ex.c **** 
 823:C:/Users/SAM.KINUTHIA/.icode/sdk/IoT_LINK_1.0.0/drivers/third_party/ST/STM32L4xx_HAL_Driver/Src\stm32l4xx_hal_uart_ex.c **** /**
 824:C:/Users/SAM.KINUTHIA/.icode/sdk/IoT_LINK_1.0.0/drivers/third_party/ST/STM32L4xx_HAL_Driver/Src\stm32l4xx_hal_uart_ex.c ****   * @}
 825:C:/Users/SAM.KINUTHIA/.icode/sdk/IoT_LINK_1.0.0/drivers/third_party/ST/STM32L4xx_HAL_Driver/Src\stm32l4xx_hal_uart_ex.c ****   */
 826:C:/Users/SAM.KINUTHIA/.icode/sdk/IoT_LINK_1.0.0/drivers/third_party/ST/STM32L4xx_HAL_Driver/Src\stm32l4xx_hal_uart_ex.c **** 
 827:C:/Users/SAM.KINUTHIA/.icode/sdk/IoT_LINK_1.0.0/drivers/third_party/ST/STM32L4xx_HAL_Driver/Src\stm32l4xx_hal_uart_ex.c **** /**
 828:C:/Users/SAM.KINUTHIA/.icode/sdk/IoT_LINK_1.0.0/drivers/third_party/ST/STM32L4xx_HAL_Driver/Src\stm32l4xx_hal_uart_ex.c ****   * @}
 829:C:/Users/SAM.KINUTHIA/.icode/sdk/IoT_LINK_1.0.0/drivers/third_party/ST/STM32L4xx_HAL_Driver/Src\stm32l4xx_hal_uart_ex.c ****   */
 830:C:/Users/SAM.KINUTHIA/.icode/sdk/IoT_LINK_1.0.0/drivers/third_party/ST/STM32L4xx_HAL_Driver/Src\stm32l4xx_hal_uart_ex.c **** 
 831:C:/Users/SAM.KINUTHIA/.icode/sdk/IoT_LINK_1.0.0/drivers/third_party/ST/STM32L4xx_HAL_Driver/Src\stm32l4xx_hal_uart_ex.c **** /** @addtogroup UARTEx_Private_Functions
 832:C:/Users/SAM.KINUTHIA/.icode/sdk/IoT_LINK_1.0.0/drivers/third_party/ST/STM32L4xx_HAL_Driver/Src\stm32l4xx_hal_uart_ex.c ****   * @{
 833:C:/Users/SAM.KINUTHIA/.icode/sdk/IoT_LINK_1.0.0/drivers/third_party/ST/STM32L4xx_HAL_Driver/Src\stm32l4xx_hal_uart_ex.c ****   */
 834:C:/Users/SAM.KINUTHIA/.icode/sdk/IoT_LINK_1.0.0/drivers/third_party/ST/STM32L4xx_HAL_Driver/Src\stm32l4xx_hal_uart_ex.c **** 
 835:C:/Users/SAM.KINUTHIA/.icode/sdk/IoT_LINK_1.0.0/drivers/third_party/ST/STM32L4xx_HAL_Driver/Src\stm32l4xx_hal_uart_ex.c **** /**
 836:C:/Users/SAM.KINUTHIA/.icode/sdk/IoT_LINK_1.0.0/drivers/third_party/ST/STM32L4xx_HAL_Driver/Src\stm32l4xx_hal_uart_ex.c ****   * @brief Initialize the UART wake-up from stop mode parameters when triggered by address detectio
 837:C:/Users/SAM.KINUTHIA/.icode/sdk/IoT_LINK_1.0.0/drivers/third_party/ST/STM32L4xx_HAL_Driver/Src\stm32l4xx_hal_uart_ex.c ****   * @param huart           UART handle.
 838:C:/Users/SAM.KINUTHIA/.icode/sdk/IoT_LINK_1.0.0/drivers/third_party/ST/STM32L4xx_HAL_Driver/Src\stm32l4xx_hal_uart_ex.c ****   * @param WakeUpSelection UART wake up from stop mode parameters.
 839:C:/Users/SAM.KINUTHIA/.icode/sdk/IoT_LINK_1.0.0/drivers/third_party/ST/STM32L4xx_HAL_Driver/Src\stm32l4xx_hal_uart_ex.c ****   * @retval None
 840:C:/Users/SAM.KINUTHIA/.icode/sdk/IoT_LINK_1.0.0/drivers/third_party/ST/STM32L4xx_HAL_Driver/Src\stm32l4xx_hal_uart_ex.c ****   */
 841:C:/Users/SAM.KINUTHIA/.icode/sdk/IoT_LINK_1.0.0/drivers/third_party/ST/STM32L4xx_HAL_Driver/Src\stm32l4xx_hal_uart_ex.c **** static void UARTEx_Wakeup_AddressConfig(UART_HandleTypeDef *huart, UART_WakeUpTypeDef WakeUpSelecti
 842:C:/Users/SAM.KINUTHIA/.icode/sdk/IoT_LINK_1.0.0/drivers/third_party/ST/STM32L4xx_HAL_Driver/Src\stm32l4xx_hal_uart_ex.c **** {
 592              		.loc 1 842 0
 593              		.cfi_startproc
 594              		@ args = 0, pretend = 0, frame = 16
 595              		@ frame_needed = 1, uses_anonymous_args = 0
 596              		@ link register save eliminated.
ARM GAS  C:\Users\SAM~1.KIN\AppData\Local\Temp\ccbOvCcl.s 			page 26


 597 0000 80B4     		push	{r7}
 598              	.LCFI33:
 599              		.cfi_def_cfa_offset 4
 600              		.cfi_offset 7, -4
 601 0002 85B0     		sub	sp, sp, #20
 602              	.LCFI34:
 603              		.cfi_def_cfa_offset 24
 604 0004 00AF     		add	r7, sp, #0
 605              	.LCFI35:
 606              		.cfi_def_cfa_register 7
 607 0006 F860     		str	r0, [r7, #12]
 608 0008 3B1D     		adds	r3, r7, #4
 609 000a 83E80600 		stm	r3, {r1, r2}
 843:C:/Users/SAM.KINUTHIA/.icode/sdk/IoT_LINK_1.0.0/drivers/third_party/ST/STM32L4xx_HAL_Driver/Src\stm32l4xx_hal_uart_ex.c ****   assert_param(IS_UART_ADDRESSLENGTH_DETECT(WakeUpSelection.AddressLength));
 844:C:/Users/SAM.KINUTHIA/.icode/sdk/IoT_LINK_1.0.0/drivers/third_party/ST/STM32L4xx_HAL_Driver/Src\stm32l4xx_hal_uart_ex.c ****   
 845:C:/Users/SAM.KINUTHIA/.icode/sdk/IoT_LINK_1.0.0/drivers/third_party/ST/STM32L4xx_HAL_Driver/Src\stm32l4xx_hal_uart_ex.c ****   /* Set the USART address length */
 846:C:/Users/SAM.KINUTHIA/.icode/sdk/IoT_LINK_1.0.0/drivers/third_party/ST/STM32L4xx_HAL_Driver/Src\stm32l4xx_hal_uart_ex.c ****   MODIFY_REG(huart->Instance->CR2, USART_CR2_ADDM7, WakeUpSelection.AddressLength);
 610              		.loc 1 846 0
 611 000e FB68     		ldr	r3, [r7, #12]
 612 0010 1B68     		ldr	r3, [r3]
 613 0012 5B68     		ldr	r3, [r3, #4]
 614 0014 23F01002 		bic	r2, r3, #16
 615 0018 3B89     		ldrh	r3, [r7, #8]
 616 001a 1946     		mov	r1, r3
 617 001c FB68     		ldr	r3, [r7, #12]
 618 001e 1B68     		ldr	r3, [r3]
 619 0020 0A43     		orrs	r2, r2, r1
 620 0022 5A60     		str	r2, [r3, #4]
 847:C:/Users/SAM.KINUTHIA/.icode/sdk/IoT_LINK_1.0.0/drivers/third_party/ST/STM32L4xx_HAL_Driver/Src\stm32l4xx_hal_uart_ex.c ****   
 848:C:/Users/SAM.KINUTHIA/.icode/sdk/IoT_LINK_1.0.0/drivers/third_party/ST/STM32L4xx_HAL_Driver/Src\stm32l4xx_hal_uart_ex.c ****   /* Set the USART address node */
 849:C:/Users/SAM.KINUTHIA/.icode/sdk/IoT_LINK_1.0.0/drivers/third_party/ST/STM32L4xx_HAL_Driver/Src\stm32l4xx_hal_uart_ex.c ****   MODIFY_REG(huart->Instance->CR2, USART_CR2_ADD, ((uint32_t)WakeUpSelection.Address << UART_CR2_AD
 621              		.loc 1 849 0
 622 0024 FB68     		ldr	r3, [r7, #12]
 623 0026 1B68     		ldr	r3, [r3]
 624 0028 5B68     		ldr	r3, [r3, #4]
 625 002a 23F07F41 		bic	r1, r3, #-16777216
 626 002e BB7A     		ldrb	r3, [r7, #10]	@ zero_extendqisi2
 627 0030 1A06     		lsls	r2, r3, #24
 628 0032 FB68     		ldr	r3, [r7, #12]
 629 0034 1B68     		ldr	r3, [r3]
 630 0036 0A43     		orrs	r2, r2, r1
 631 0038 5A60     		str	r2, [r3, #4]
 850:C:/Users/SAM.KINUTHIA/.icode/sdk/IoT_LINK_1.0.0/drivers/third_party/ST/STM32L4xx_HAL_Driver/Src\stm32l4xx_hal_uart_ex.c **** }
 632              		.loc 1 850 0
 633 003a 00BF     		nop
 634 003c 1437     		adds	r7, r7, #20
 635              	.LCFI36:
 636              		.cfi_def_cfa_offset 4
 637 003e BD46     		mov	sp, r7
 638              	.LCFI37:
 639              		.cfi_def_cfa_register 13
 640              		@ sp needed
 641 0040 5DF8047B 		ldr	r7, [sp], #4
 642              	.LCFI38:
 643              		.cfi_restore 7
 644              		.cfi_def_cfa_offset 0
 645 0044 7047     		bx	lr
ARM GAS  C:\Users\SAM~1.KIN\AppData\Local\Temp\ccbOvCcl.s 			page 27


 646              		.cfi_endproc
 647              	.LFE293:
 649              		.text
 650              	.Letext0:
 651              		.file 2 "c:\\users\\sam.kinuthia\\opensourcetools\\gnu tools arm embedded\\7 2018-q2-update\\arm-n
 652              		.file 3 "c:\\users\\sam.kinuthia\\opensourcetools\\gnu tools arm embedded\\7 2018-q2-update\\arm-n
 653              		.file 4 "c:\\users\\sam.kinuthia\\opensourcetools\\gnu tools arm embedded\\7 2018-q2-update\\arm-n
 654              		.file 5 "c:\\users\\sam.kinuthia\\opensourcetools\\gnu tools arm embedded\\7 2018-q2-update\\lib\\
 655              		.file 6 "c:\\users\\sam.kinuthia\\opensourcetools\\gnu tools arm embedded\\7 2018-q2-update\\arm-n
 656              		.file 7 "C:/Users/SAM.KINUTHIA/.icode/sdk/IoT_LINK_1.0.0/iot_link/os/liteos/include/los_typedef.h"
 657              		.file 8 "c:\\users\\sam.kinuthia\\opensourcetools\\gnu tools arm embedded\\7 2018-q2-update\\arm-n
 658              		.file 9 "C:/Users/SAM.KINUTHIA/.icode/sdk/IoT_LINK_1.0.0/iot_link/os/liteos/arch/arm/common/cmsis/
 659              		.file 10 "C:/Users/SAM.KINUTHIA/Desktop/HCIAPROJECT/demofile2/targets/STM32L431_BearPi/Inc/system_
 660              		.file 11 "C:/Users/SAM.KINUTHIA/Desktop/HCIAPROJECT/demofile2/targets/STM32L431_BearPi/Inc/stm32l4
 661              		.file 12 "C:/Users/SAM.KINUTHIA/.icode/sdk/IoT_LINK_1.0.0/iot_link/os/liteos/include/los_config.h"
 662              		.file 13 "C:/Users/SAM.KINUTHIA/.icode/sdk/IoT_LINK_1.0.0/iot_link/os/liteos/include/los_err.h"
 663              		.file 14 "C:/Users/SAM.KINUTHIA/.icode/sdk/IoT_LINK_1.0.0/iot_link/os/liteos/arch/arm/arm-m/includ
 664              		.file 15 "C:/Users/SAM.KINUTHIA/Desktop/HCIAPROJECT/demofile2/targets/STM32L431_BearPi/Inc/stm32l4
 665              		.file 16 "C:/Users/SAM.KINUTHIA/.icode/sdk/IoT_LINK_1.0.0/drivers/third_party/ST/STM32L4xx_HAL_Dri
 666              		.file 17 "C:/Users/SAM.KINUTHIA/.icode/sdk/IoT_LINK_1.0.0/drivers/third_party/ST/STM32L4xx_HAL_Dri
 667              		.file 18 "C:/Users/SAM.KINUTHIA/.icode/sdk/IoT_LINK_1.0.0/drivers/third_party/ST/STM32L4xx_HAL_Dri
 668              		.file 19 "C:/Users/SAM.KINUTHIA/.icode/sdk/IoT_LINK_1.0.0/drivers/third_party/ST/STM32L4xx_HAL_Dri
ARM GAS  C:\Users\SAM~1.KIN\AppData\Local\Temp\ccbOvCcl.s 			page 28

